---
triple:          'arm64-apple-darwin'
binary-path:     '/Users/g.gasaev/gok/lab_3/src/main'
relocations:
  - { offsetInCU: 0x53, offset: 0x53, size: 0x8, addend: 0x0, symName: __ZL5yy_ec, symObjAddr: 0x4E16, symBinAddr: 0x10001EA00, symSize: 0x0 }
  - { offsetInCU: 0x9D, offset: 0x9D, size: 0x8, addend: 0x0, symName: __ZL9yy_accept, symObjAddr: 0x4F16, symBinAddr: 0x10001EB00, symSize: 0x0 }
  - { offsetInCU: 0xDA, offset: 0xDA, size: 0x8, addend: 0x0, symName: __ZL6yy_chk, symObjAddr: 0x4F5E, symBinAddr: 0x10001EB48, symSize: 0x0 }
  - { offsetInCU: 0x100, offset: 0x100, size: 0x8, addend: 0x0, symName: __ZL7yy_base, symObjAddr: 0x4FEA, symBinAddr: 0x10001EBD4, symSize: 0x0 }
  - { offsetInCU: 0x126, offset: 0x126, size: 0x8, addend: 0x0, symName: __ZL6yy_def, symObjAddr: 0x5036, symBinAddr: 0x10001EC20, symSize: 0x0 }
  - { offsetInCU: 0x140, offset: 0x140, size: 0x8, addend: 0x0, symName: __ZL7yy_meta, symObjAddr: 0x5082, symBinAddr: 0x10001EC6C, symSize: 0x0 }
  - { offsetInCU: 0x166, offset: 0x166, size: 0x8, addend: 0x0, symName: __ZL6yy_nxt, symObjAddr: 0x5096, symBinAddr: 0x10001EC80, symSize: 0x0 }
  - { offsetInCU: 0x442D, offset: 0x442D, size: 0x8, addend: 0x0, symName: __ZNSt3__124__put_character_sequenceB8ue170006IcNS_11char_traitsIcEEEERNS_13basic_ostreamIT_T0_EES7_PKS4_m, symObjAddr: 0x416C, symBinAddr: 0x100007A20, symSize: 0x1EC }
  - { offsetInCU: 0x52C2, offset: 0x52C2, size: 0x8, addend: 0x0, symName: __ZNSt3__1lsB8ue170006INS_11char_traitsIcEEEERNS_13basic_ostreamIcT_EES6_PKc, symObjAddr: 0x353C, symBinAddr: 0x100006DF0, symSize: 0x48 }
  - { offsetInCU: 0x5308, offset: 0x5308, size: 0x8, addend: 0x0, symName: __ZNSt3__14endlB8ue170006IcNS_11char_traitsIcEEEERNS_13basic_ostreamIT_T0_EES7_, symObjAddr: 0x35B0, symBinAddr: 0x100006E64, symSize: 0x58 }
  - { offsetInCU: 0x5348, offset: 0x5348, size: 0x8, addend: 0x0, symName: __ZNSt3__18distanceB8ue170006IPcEENS_15iterator_traitsIT_E15difference_typeES3_S3_, symObjAddr: 0x380C, symBinAddr: 0x1000070C0, symSize: 0x2C }
  - { offsetInCU: 0x538B, offset: 0x538B, size: 0x8, addend: 0x0, symName: __ZNSt3__110__distanceB8ue170006IPcEENS_15iterator_traitsIT_E15difference_typeES3_S3_NS_26random_access_iterator_tagE, symObjAddr: 0x397C, symBinAddr: 0x100007230, symSize: 0x20 }
  - { offsetInCU: 0x53D8, offset: 0x53D8, size: 0x8, addend: 0x0, symName: __ZNSt3__119__allocate_at_leastB8ue170006INS_9allocatorIcEEEENS_19__allocation_resultINS_16allocator_traitsIT_E7pointerEEERS5_m, symObjAddr: 0x3B24, symBinAddr: 0x1000073D8, symSize: 0x40 }
  - { offsetInCU: 0x561D, offset: 0x561D, size: 0x8, addend: 0x0, symName: __ZNSt3__120__throw_length_errorB8ue170006EPKc, symObjAddr: 0x3DD4, symBinAddr: 0x100007688, symSize: 0x64 }
  - { offsetInCU: 0x567A, offset: 0x567A, size: 0x8, addend: 0x0, symName: __ZNSt3__117__libcpp_allocateB8ue170006Emm, symObjAddr: 0x3F90, symBinAddr: 0x100007844, symSize: 0x28 }
  - { offsetInCU: 0x56B7, offset: 0x56B7, size: 0x8, addend: 0x0, symName: __ZNSt3__121__libcpp_operator_newB8ue170006IJmEEEPvDpT_, symObjAddr: 0x3FB8, symBinAddr: 0x10000786C, symSize: 0x24 }
  - { offsetInCU: 0x56F0, offset: 0x56F0, size: 0x8, addend: 0x0, symName: __ZNSt3__116__pad_and_outputB8ue170006IcNS_11char_traitsIcEEEENS_19ostreambuf_iteratorIT_T0_EES6_PKS4_S8_S8_RNS_8ios_baseES4_, symObjAddr: 0x43A8, symBinAddr: 0x100007C5C, symSize: 0x240 }
  - { offsetInCU: 0x57BF, offset: 0x57BF, size: 0x8, addend: 0x0, symName: __ZNSt3__112__to_addressB8ue170006IKcEEPT_S3_, symObjAddr: 0x4818, symBinAddr: 0x1000080CC, symSize: 0x14 }
  - { offsetInCU: 0x5827, offset: 0x5827, size: 0x8, addend: 0x0, symName: __ZNSt3__19use_facetB8ue170006INS_5ctypeIcEEEERKT_RKNS_6localeE, symObjAddr: 0x4A54, symBinAddr: 0x100008308, symSize: 0x2C }
  - { offsetInCU: 0x5CF4, offset: 0x5CF4, size: 0x8, addend: 0x0, symName: __ZNSt3__118__constexpr_strlenB8ue170006EPKc, symObjAddr: 0x4AEC, symBinAddr: 0x1000083A0, symSize: 0x24 }
  - { offsetInCU: 0x5FB1, offset: 0x5FB1, size: 0x8, addend: 0x0, symName: __ZSt28__throw_bad_array_new_lengthB8ue170006v, symObjAddr: 0x3F5C, symBinAddr: 0x100007810, symSize: 0x34 }
  - { offsetInCU: 0x916D, offset: 0x916D, size: 0x8, addend: 0x0, symName: __ZN11yyFlexLexer6yywrapEv, symObjAddr: 0x0, symBinAddr: 0x1000038B4, symSize: 0x14 }
  - { offsetInCU: 0x9196, offset: 0x9196, size: 0x8, addend: 0x0, symName: __ZN11yyFlexLexer5yylexEv, symObjAddr: 0x14, symBinAddr: 0x1000038C8, symSize: 0x38 }
  - { offsetInCU: 0x91BF, offset: 0x91BF, size: 0x8, addend: 0x0, symName: __ZN8FooLexer5yylexEPvPN2yy8locationE, symObjAddr: 0x4C, symBinAddr: 0x100003900, symSize: 0x102C }
  - { offsetInCU: 0x9537, offset: 0x9537, size: 0x8, addend: 0x0, symName: __ZNKSt3__19basic_iosIcNS_11char_traitsIcEEEntB8ue170006Ev, symObjAddr: 0x10AC, symBinAddr: 0x100004960, symSize: 0x28 }
  - { offsetInCU: 0x955D, offset: 0x955D, size: 0x8, addend: 0x0, symName: __ZNSt3__19basic_iosIcNS_11char_traitsIcEEE5rdbufB8ue170006EPNS_15basic_streambufIcS2_EE, symObjAddr: 0x10D4, symBinAddr: 0x100004988, symSize: 0x44 }
  - { offsetInCU: 0x95A3, offset: 0x95A3, size: 0x8, addend: 0x0, symName: __ZNKSt3__19basic_iosIcNS_11char_traitsIcEEE5rdbufB8ue170006Ev, symObjAddr: 0x1118, symBinAddr: 0x1000049CC, symSize: 0x24 }
  - { offsetInCU: 0x95CB, offset: 0x95CB, size: 0x8, addend: 0x0, symName: __ZN11yyFlexLexer21yyensure_buffer_stackEv, symObjAddr: 0x113C, symBinAddr: 0x1000049F0, symSize: 0x15C }
  - { offsetInCU: 0x9621, offset: 0x9621, size: 0x8, addend: 0x0, symName: __ZN11yyFlexLexer20yy_load_buffer_stateEv, symObjAddr: 0x1298, symBinAddr: 0x100004B4C, symSize: 0x84 }
  - { offsetInCU: 0x964F, offset: 0x964F, size: 0x8, addend: 0x0, symName: __ZNSt3__112basic_stringIcNS_11char_traitsIcEENS_9allocatorIcEEEC1B8ue170006IPcLi0EEET_S8_, symObjAddr: 0x131C, symBinAddr: 0x100004BD0, symSize: 0x3C }
  - { offsetInCU: 0x96A6, offset: 0x96A6, size: 0x8, addend: 0x0, symName: __ZN11yyFlexLexer21yy_get_previous_stateEv, symObjAddr: 0x1358, symBinAddr: 0x100004C0C, symSize: 0x198 }
  - { offsetInCU: 0x970B, offset: 0x970B, size: 0x8, addend: 0x0, symName: __ZN11yyFlexLexer16yy_try_NUL_transEi, symObjAddr: 0x14F0, symBinAddr: 0x100004DA4, symSize: 0x15C }
  - { offsetInCU: 0x9770, offset: 0x9770, size: 0x8, addend: 0x0, symName: __ZN11yyFlexLexer18yy_get_next_bufferEv, symObjAddr: 0x164C, symBinAddr: 0x100004F00, symSize: 0x590 }
  - { offsetInCU: 0x986B, offset: 0x986B, size: 0x8, addend: 0x0, symName: __ZN11yyFlexLexerC2EPNSt3__113basic_istreamIcNS0_11char_traitsIcEEEEPNS0_13basic_ostreamIcS3_EE, symObjAddr: 0x1BDC, symBinAddr: 0x100005490, symSize: 0x1C4 }
  - { offsetInCU: 0x98B6, offset: 0x98B6, size: 0x8, addend: 0x0, symName: __ZN9FlexLexerC2Ev, symObjAddr: 0x1DA0, symBinAddr: 0x100005654, symSize: 0x24 }
  - { offsetInCU: 0x98E2, offset: 0x98E2, size: 0x8, addend: 0x0, symName: __ZNSt3__113basic_istreamIcNS_11char_traitsIcEEEC1B8ue170006EPNS_15basic_streambufIcS2_EE, symObjAddr: 0x1DC4, symBinAddr: 0x100005678, symSize: 0xA0 }
  - { offsetInCU: 0x991A, offset: 0x991A, size: 0x8, addend: 0x0, symName: __ZNSt3__113basic_ostreamIcNS_11char_traitsIcEEEC1B8ue170006EPNS_15basic_streambufIcS2_EE, symObjAddr: 0x1E64, symBinAddr: 0x100005718, symSize: 0x9C }
  - { offsetInCU: 0x9952, offset: 0x9952, size: 0x8, addend: 0x0, symName: __ZN11yyFlexLexer11ctor_commonEv, symObjAddr: 0x1F00, symBinAddr: 0x1000057B4, symSize: 0x60 }
  - { offsetInCU: 0x997B, offset: 0x997B, size: 0x8, addend: 0x0, symName: __ZN9FlexLexerD2Ev, symObjAddr: 0x1F60, symBinAddr: 0x100005814, symSize: 0x14 }
  - { offsetInCU: 0x99A5, offset: 0x99A5, size: 0x8, addend: 0x0, symName: __ZN11yyFlexLexerC1EPNSt3__113basic_istreamIcNS0_11char_traitsIcEEEEPNS0_13basic_ostreamIcS3_EE, symObjAddr: 0x1F74, symBinAddr: 0x100005828, symSize: 0x3C }
  - { offsetInCU: 0x99F0, offset: 0x99F0, size: 0x8, addend: 0x0, symName: __ZN11yyFlexLexerC2ERNSt3__113basic_istreamIcNS0_11char_traitsIcEEEERNS0_13basic_ostreamIcS3_EE, symObjAddr: 0x1FB0, symBinAddr: 0x100005864, symSize: 0x124 }
  - { offsetInCU: 0x9A3B, offset: 0x9A3B, size: 0x8, addend: 0x0, symName: __ZN11yyFlexLexerC1ERNSt3__113basic_istreamIcNS0_11char_traitsIcEEEERNS0_13basic_ostreamIcS3_EE, symObjAddr: 0x20D4, symBinAddr: 0x100005988, symSize: 0x3C }
  - { offsetInCU: 0x9A86, offset: 0x9A86, size: 0x8, addend: 0x0, symName: __ZN11yyFlexLexerD2Ev, symObjAddr: 0x2110, symBinAddr: 0x1000059C4, symSize: 0xFC }
  - { offsetInCU: 0x9AB3, offset: 0x9AB3, size: 0x8, addend: 0x0, symName: __Z6yyfreePv, symObjAddr: 0x220C, symBinAddr: 0x100005AC0, symSize: 0x24 }
  - { offsetInCU: 0x9ADE, offset: 0x9ADE, size: 0x8, addend: 0x0, symName: __ZN11yyFlexLexerD1Ev, symObjAddr: 0x223C, symBinAddr: 0x100005AF0, symSize: 0x2C }
  - { offsetInCU: 0x9B0B, offset: 0x9B0B, size: 0x8, addend: 0x0, symName: __ZN11yyFlexLexerD0Ev, symObjAddr: 0x2268, symBinAddr: 0x100005B1C, symSize: 0x30 }
  - { offsetInCU: 0x9B38, offset: 0x9B38, size: 0x8, addend: 0x0, symName: __ZN11yyFlexLexer14switch_streamsERNSt3__113basic_istreamIcNS0_11char_traitsIcEEEERNS0_13basic_ostreamIcS3_EE, symObjAddr: 0x2298, symBinAddr: 0x100005B4C, symSize: 0xDC }
  - { offsetInCU: 0x9B7F, offset: 0x9B7F, size: 0x8, addend: 0x0, symName: __ZN11yyFlexLexer14switch_streamsEPNSt3__113basic_istreamIcNS0_11char_traitsIcEEEEPNS0_13basic_ostreamIcS3_EE, symObjAddr: 0x2374, symBinAddr: 0x100005C28, symSize: 0x8C }
  - { offsetInCU: 0x9BC6, offset: 0x9BC6, size: 0x8, addend: 0x0, symName: __ZN11yyFlexLexer10LexerInputEPcm, symObjAddr: 0x2400, symBinAddr: 0x100005CB4, symSize: 0xE4 }
  - { offsetInCU: 0x9C0A, offset: 0x9C0A, size: 0x8, addend: 0x0, symName: __ZNKSt3__19basic_iosIcNS_11char_traitsIcEEE3eofB8ue170006Ev, symObjAddr: 0x24E4, symBinAddr: 0x100005D98, symSize: 0x28 }
  - { offsetInCU: 0x9C30, offset: 0x9C30, size: 0x8, addend: 0x0, symName: __ZNKSt3__19basic_iosIcNS_11char_traitsIcEEE4failB8ue170006Ev, symObjAddr: 0x250C, symBinAddr: 0x100005DC0, symSize: 0x28 }
  - { offsetInCU: 0x9C56, offset: 0x9C56, size: 0x8, addend: 0x0, symName: __ZNSt3__113basic_istreamIcNS_11char_traitsIcEEE3getB8ue170006ERc, symObjAddr: 0x2534, symBinAddr: 0x100005DE8, symSize: 0x68 }
  - { offsetInCU: 0x9C9A, offset: 0x9C9A, size: 0x8, addend: 0x0, symName: __ZNKSt3__19basic_iosIcNS_11char_traitsIcEEE3badB8ue170006Ev, symObjAddr: 0x259C, symBinAddr: 0x100005E50, symSize: 0x28 }
  - { offsetInCU: 0x9CC0, offset: 0x9CC0, size: 0x8, addend: 0x0, symName: __ZN11yyFlexLexer11LexerOutputEPKcm, symObjAddr: 0x25C4, symBinAddr: 0x100005E78, symSize: 0x38 }
  - { offsetInCU: 0x9D06, offset: 0x9D06, size: 0x8, addend: 0x0, symName: __Z9yyreallocPvm, symObjAddr: 0x25FC, symBinAddr: 0x100005EB0, symSize: 0x2C }
  - { offsetInCU: 0x9D44, offset: 0x9D44, size: 0x8, addend: 0x0, symName: __ZN11yyFlexLexer7yyunputEiPc, symObjAddr: 0x2628, symBinAddr: 0x100005EDC, symSize: 0x1EC }
  - { offsetInCU: 0x9DD6, offset: 0x9DD6, size: 0x8, addend: 0x0, symName: __ZN11yyFlexLexer7yyinputEv, symObjAddr: 0x2814, symBinAddr: 0x1000060C8, symSize: 0x1C4 }
  - { offsetInCU: 0x9E2C, offset: 0x9E2C, size: 0x8, addend: 0x0, symName: __ZN11yyFlexLexer9yyrestartERNSt3__113basic_istreamIcNS0_11char_traitsIcEEEE, symObjAddr: 0x29D8, symBinAddr: 0x10000628C, symSize: 0xFC }
  - { offsetInCU: 0x9E64, offset: 0x9E64, size: 0x8, addend: 0x0, symName: __ZN11yyFlexLexer14yy_init_bufferEP15yy_buffer_stateRNSt3__113basic_istreamIcNS2_11char_traitsIcEEEE, symObjAddr: 0x2AD4, symBinAddr: 0x100006388, symSize: 0x100 }
  - { offsetInCU: 0x9EBA, offset: 0x9EBA, size: 0x8, addend: 0x0, symName: __ZN11yyFlexLexer9yyrestartEPNSt3__113basic_istreamIcNS0_11char_traitsIcEEEE, symObjAddr: 0x2BD4, symBinAddr: 0x100006488, symSize: 0x60 }
  - { offsetInCU: 0x9EF2, offset: 0x9EF2, size: 0x8, addend: 0x0, symName: __ZN11yyFlexLexer19yy_switch_to_bufferEP15yy_buffer_state, symObjAddr: 0x2C34, symBinAddr: 0x1000064E8, symSize: 0x138 }
  - { offsetInCU: 0x9F2A, offset: 0x9F2A, size: 0x8, addend: 0x0, symName: __ZN11yyFlexLexer16yy_create_bufferERNSt3__113basic_istreamIcNS0_11char_traitsIcEEEEi, symObjAddr: 0x2D6C, symBinAddr: 0x100006620, symSize: 0xE8 }
  - { offsetInCU: 0x9F83, offset: 0x9F83, size: 0x8, addend: 0x0, symName: __Z7yyallocm, symObjAddr: 0x2E54, symBinAddr: 0x100006708, symSize: 0x24 }
  - { offsetInCU: 0x9FB2, offset: 0x9FB2, size: 0x8, addend: 0x0, symName: __ZN11yyFlexLexer16yy_create_bufferEPNSt3__113basic_istreamIcNS0_11char_traitsIcEEEEi, symObjAddr: 0x2E78, symBinAddr: 0x10000672C, symSize: 0x3C }
  - { offsetInCU: 0x9FFD, offset: 0x9FFD, size: 0x8, addend: 0x0, symName: __ZN11yyFlexLexer16yy_delete_bufferEP15yy_buffer_state, symObjAddr: 0x2EB4, symBinAddr: 0x100006768, symSize: 0xE8 }
  - { offsetInCU: 0xA035, offset: 0xA035, size: 0x8, addend: 0x0, symName: __ZN11yyFlexLexer15yy_flush_bufferEP15yy_buffer_state, symObjAddr: 0x2F9C, symBinAddr: 0x100006850, symSize: 0xEC }
  - { offsetInCU: 0xA06D, offset: 0xA06D, size: 0x8, addend: 0x0, symName: __ZN11yyFlexLexer19yypush_buffer_stateEP15yy_buffer_state, symObjAddr: 0x3088, symBinAddr: 0x10000693C, symSize: 0x160 }
  - { offsetInCU: 0xA0A5, offset: 0xA0A5, size: 0x8, addend: 0x0, symName: __ZN11yyFlexLexer18yypop_buffer_stateEv, symObjAddr: 0x31E8, symBinAddr: 0x100006A9C, symSize: 0x168 }
  - { offsetInCU: 0xA0CE, offset: 0xA0CE, size: 0x8, addend: 0x0, symName: __ZN11yyFlexLexer13yy_push_stateEi, symObjAddr: 0x3350, symBinAddr: 0x100006C04, symSize: 0x114 }
  - { offsetInCU: 0xA124, offset: 0xA124, size: 0x8, addend: 0x0, symName: __ZN11yyFlexLexer12yy_pop_stateEv, symObjAddr: 0x3464, symBinAddr: 0x100006D18, symSize: 0x7C }
  - { offsetInCU: 0xA14D, offset: 0xA14D, size: 0x8, addend: 0x0, symName: __ZN11yyFlexLexer12yy_top_stateEv, symObjAddr: 0x34E0, symBinAddr: 0x100006D94, symSize: 0x24 }
  - { offsetInCU: 0xA176, offset: 0xA176, size: 0x8, addend: 0x0, symName: __ZN11yyFlexLexer10LexerErrorEPKc, symObjAddr: 0x3504, symBinAddr: 0x100006DB8, symSize: 0x38 }
  - { offsetInCU: 0xA1AE, offset: 0xA1AE, size: 0x8, addend: 0x0, symName: __ZNSt3__113basic_ostreamIcNS_11char_traitsIcEEElsB8ue170006EPFRS3_S4_E, symObjAddr: 0x3584, symBinAddr: 0x100006E38, symSize: 0x2C }
  - { offsetInCU: 0xA1E2, offset: 0xA1E2, size: 0x8, addend: 0x0, symName: __ZN9FlexLexerD1Ev, symObjAddr: 0x3608, symBinAddr: 0x100006EBC, symSize: 0x14 }
  - { offsetInCU: 0xA20C, offset: 0xA20C, size: 0x8, addend: 0x0, symName: __ZN9FlexLexerD0Ev, symObjAddr: 0x361C, symBinAddr: 0x100006ED0, symSize: 0xC }
  - { offsetInCU: 0xA236, offset: 0xA236, size: 0x8, addend: 0x0, symName: __ZNKSt3__18ios_base5rdbufB8ue170006Ev, symObjAddr: 0x3628, symBinAddr: 0x100006EDC, symSize: 0x18 }
  - { offsetInCU: 0xA25C, offset: 0xA25C, size: 0x8, addend: 0x0, symName: __ZNSt3__18ios_base5rdbufB8ue170006EPv, symObjAddr: 0x3640, symBinAddr: 0x100006EF4, symSize: 0x34 }
  - { offsetInCU: 0xA291, offset: 0xA291, size: 0x8, addend: 0x0, symName: __ZNSt3__112basic_stringIcNS_11char_traitsIcEENS_9allocatorIcEEEC2B8ue170006IPcLi0EEET_S8_, symObjAddr: 0x3674, symBinAddr: 0x100006F28, symSize: 0x4C }
  - { offsetInCU: 0xA2ED, offset: 0xA2ED, size: 0x8, addend: 0x0, symName: __ZNSt3__117__compressed_pairINS_12basic_stringIcNS_11char_traitsIcEENS_9allocatorIcEEE5__repES5_EC1B8ue170006INS_18__default_init_tagESA_EEOT_OT0_, symObjAddr: 0x36C0, symBinAddr: 0x100006F74, symSize: 0x3C }
  - { offsetInCU: 0xA345, offset: 0xA345, size: 0x8, addend: 0x0, symName: __ZNSt3__112basic_stringIcNS_11char_traitsIcEENS_9allocatorIcEEE6__initIPcLi0EEEvT_S8_, symObjAddr: 0x36FC, symBinAddr: 0x100006FB0, symSize: 0x54 }
  - { offsetInCU: 0xA3A9, offset: 0xA3A9, size: 0x8, addend: 0x0, symName: __ZNSt3__117__compressed_pairINS_12basic_stringIcNS_11char_traitsIcEENS_9allocatorIcEEE5__repES5_EC2B8ue170006INS_18__default_init_tagESA_EEOT_OT0_, symObjAddr: 0x3750, symBinAddr: 0x100007004, symSize: 0x3C }
  - { offsetInCU: 0xA401, offset: 0xA401, size: 0x8, addend: 0x0, symName: __ZNSt3__122__compressed_pair_elemINS_12basic_stringIcNS_11char_traitsIcEENS_9allocatorIcEEE5__repELi0ELb0EEC2B8ue170006ENS_18__default_init_tagE, symObjAddr: 0x378C, symBinAddr: 0x100007040, symSize: 0x14 }
  - { offsetInCU: 0xA435, offset: 0xA435, size: 0x8, addend: 0x0, symName: __ZNSt3__122__compressed_pair_elemINS_9allocatorIcEELi1ELb1EEC2B8ue170006ENS_18__default_init_tagE, symObjAddr: 0x37A0, symBinAddr: 0x100007054, symSize: 0x2C }
  - { offsetInCU: 0xA469, offset: 0xA469, size: 0x8, addend: 0x0, symName: __ZNSt3__19allocatorIcEC2B8ue170006Ev, symObjAddr: 0x37CC, symBinAddr: 0x100007080, symSize: 0x2C }
  - { offsetInCU: 0xA493, offset: 0xA493, size: 0x8, addend: 0x0, symName: __ZNSt3__116__non_trivial_ifILb1ENS_9allocatorIcEEEC2B8ue170006Ev, symObjAddr: 0x37F8, symBinAddr: 0x1000070AC, symSize: 0x14 }
  - { offsetInCU: 0xA4BD, offset: 0xA4BD, size: 0x8, addend: 0x0, symName: __ZNSt3__112basic_stringIcNS_11char_traitsIcEENS_9allocatorIcEEE16__init_with_sizeB8ue170006IPcS7_EEvT_T0_m, symObjAddr: 0x3838, symBinAddr: 0x1000070EC, symSize: 0x144 }
  - { offsetInCU: 0xA551, offset: 0xA551, size: 0x8, addend: 0x0, symName: __ZNKSt3__112basic_stringIcNS_11char_traitsIcEENS_9allocatorIcEEE8max_sizeB8ue170006Ev, symObjAddr: 0x399C, symBinAddr: 0x100007250, symSize: 0xAC }
  - { offsetInCU: 0xA5A4, offset: 0xA5A4, size: 0x8, addend: 0x0, symName: __ZNKSt3__112basic_stringIcNS_11char_traitsIcEENS_9allocatorIcEEE20__throw_length_errorB8ue170006Ev, symObjAddr: 0x3A48, symBinAddr: 0x1000072FC, symSize: 0x1C }
  - { offsetInCU: 0xA5CA, offset: 0xA5CA, size: 0x8, addend: 0x0, symName: __ZNSt3__112basic_stringIcNS_11char_traitsIcEENS_9allocatorIcEEE13__fits_in_ssoB8ue170006Em, symObjAddr: 0x3A64, symBinAddr: 0x100007318, symSize: 0x20 }
  - { offsetInCU: 0xA5EE, offset: 0xA5EE, size: 0x8, addend: 0x0, symName: __ZNSt3__112basic_stringIcNS_11char_traitsIcEENS_9allocatorIcEEE16__set_short_sizeB8ue170006Em, symObjAddr: 0x3A84, symBinAddr: 0x100007338, symSize: 0x78 }
  - { offsetInCU: 0xA623, offset: 0xA623, size: 0x8, addend: 0x0, symName: __ZNSt3__112basic_stringIcNS_11char_traitsIcEENS_9allocatorIcEEE19__get_short_pointerB8ue170006Ev, symObjAddr: 0x3AFC, symBinAddr: 0x1000073B0, symSize: 0x28 }
  - { offsetInCU: 0xA649, offset: 0xA649, size: 0x8, addend: 0x0, symName: __ZNSt3__112basic_stringIcNS_11char_traitsIcEENS_9allocatorIcEEE7__allocB8ue170006Ev, symObjAddr: 0x3B64, symBinAddr: 0x100007418, symSize: 0x24 }
  - { offsetInCU: 0xA66F, offset: 0xA66F, size: 0x8, addend: 0x0, symName: __ZNSt3__112basic_stringIcNS_11char_traitsIcEENS_9allocatorIcEEE11__recommendB8ue170006Em, symObjAddr: 0x3B88, symBinAddr: 0x10000743C, symSize: 0x84 }
  - { offsetInCU: 0xA6A2, offset: 0xA6A2, size: 0x8, addend: 0x0, symName: __ZNSt3__112basic_stringIcNS_11char_traitsIcEENS_9allocatorIcEEE16__begin_lifetimeB8ue170006EPcm, symObjAddr: 0x3C0C, symBinAddr: 0x1000074C0, symSize: 0x14 }
  - { offsetInCU: 0xA6D5, offset: 0xA6D5, size: 0x8, addend: 0x0, symName: __ZNSt3__112basic_stringIcNS_11char_traitsIcEENS_9allocatorIcEEE18__set_long_pointerB8ue170006EPc, symObjAddr: 0x3C20, symBinAddr: 0x1000074D4, symSize: 0x38 }
  - { offsetInCU: 0xA70A, offset: 0xA70A, size: 0x8, addend: 0x0, symName: __ZNSt3__112basic_stringIcNS_11char_traitsIcEENS_9allocatorIcEEE14__set_long_capB8ue170006Em, symObjAddr: 0x3C58, symBinAddr: 0x10000750C, symSize: 0x70 }
  - { offsetInCU: 0xA73F, offset: 0xA73F, size: 0x8, addend: 0x0, symName: __ZNSt3__112basic_stringIcNS_11char_traitsIcEENS_9allocatorIcEEE15__set_long_sizeB8ue170006Em, symObjAddr: 0x3CC8, symBinAddr: 0x10000757C, symSize: 0x38 }
  - { offsetInCU: 0xA774, offset: 0xA774, size: 0x8, addend: 0x0, symName: __ZNSt3__111char_traitsIcE6assignB8ue170006ERcRKc, symObjAddr: 0x3D00, symBinAddr: 0x1000075B4, symSize: 0x24 }
  - { offsetInCU: 0xA7AF, offset: 0xA7AF, size: 0x8, addend: 0x0, symName: __ZNSt3__116allocator_traitsINS_9allocatorIcEEE8max_sizeB8ue170006IS2_vEEmRKS2_, symObjAddr: 0x3D24, symBinAddr: 0x1000075D8, symSize: 0x24 }
  - { offsetInCU: 0xA7DD, offset: 0xA7DD, size: 0x8, addend: 0x0, symName: __ZNKSt3__112basic_stringIcNS_11char_traitsIcEENS_9allocatorIcEEE7__allocB8ue170006Ev, symObjAddr: 0x3D48, symBinAddr: 0x1000075FC, symSize: 0x24 }
  - { offsetInCU: 0xA803, offset: 0xA803, size: 0x8, addend: 0x0, symName: __ZNSt3__114numeric_limitsImE3maxB8ue170006Ev, symObjAddr: 0x3D6C, symBinAddr: 0x100007620, symSize: 0x14 }
  - { offsetInCU: 0xA817, offset: 0xA817, size: 0x8, addend: 0x0, symName: __ZNKSt3__19allocatorIcE8max_sizeB8ue170006Ev, symObjAddr: 0x3D80, symBinAddr: 0x100007634, symSize: 0x14 }
  - { offsetInCU: 0xA83D, offset: 0xA83D, size: 0x8, addend: 0x0, symName: __ZNKSt3__117__compressed_pairINS_12basic_stringIcNS_11char_traitsIcEENS_9allocatorIcEEE5__repES5_E6secondB8ue170006Ev, symObjAddr: 0x3D94, symBinAddr: 0x100007648, symSize: 0x24 }
  - { offsetInCU: 0xA863, offset: 0xA863, size: 0x8, addend: 0x0, symName: __ZNKSt3__122__compressed_pair_elemINS_9allocatorIcEELi1ELb1EE5__getB8ue170006Ev, symObjAddr: 0x3DB8, symBinAddr: 0x10000766C, symSize: 0x14 }
  - { offsetInCU: 0xA889, offset: 0xA889, size: 0x8, addend: 0x0, symName: __ZNSt3__123__libcpp_numeric_limitsImLb1EE3maxB8ue170006Ev, symObjAddr: 0x3DCC, symBinAddr: 0x100007680, symSize: 0x8 }
  - { offsetInCU: 0xA89D, offset: 0xA89D, size: 0x8, addend: 0x0, symName: __ZNSt12length_errorC1B8ue170006EPKc, symObjAddr: 0x3E38, symBinAddr: 0x1000076EC, symSize: 0x34 }
  - { offsetInCU: 0xA8D5, offset: 0xA8D5, size: 0x8, addend: 0x0, symName: __ZNSt12length_errorC2B8ue170006EPKc, symObjAddr: 0x3E6C, symBinAddr: 0x100007720, symSize: 0x4C }
  - { offsetInCU: 0xA90D, offset: 0xA90D, size: 0x8, addend: 0x0, symName: __ZNSt3__117__compressed_pairINS_12basic_stringIcNS_11char_traitsIcEENS_9allocatorIcEEE5__repES5_E5firstB8ue170006Ev, symObjAddr: 0x3EB8, symBinAddr: 0x10000776C, symSize: 0x24 }
  - { offsetInCU: 0xA933, offset: 0xA933, size: 0x8, addend: 0x0, symName: __ZNSt3__122__compressed_pair_elemINS_12basic_stringIcNS_11char_traitsIcEENS_9allocatorIcEEE5__repELi0ELb0EE5__getB8ue170006Ev, symObjAddr: 0x3EDC, symBinAddr: 0x100007790, symSize: 0x14 }
  - { offsetInCU: 0xA959, offset: 0xA959, size: 0x8, addend: 0x0, symName: __ZNSt3__114pointer_traitsIPcE10pointer_toB8ue170006ERc, symObjAddr: 0x3EF0, symBinAddr: 0x1000077A4, symSize: 0x14 }
  - { offsetInCU: 0xA97C, offset: 0xA97C, size: 0x8, addend: 0x0, symName: __ZNSt3__19allocatorIcE8allocateB8ue170006Em, symObjAddr: 0x3F04, symBinAddr: 0x1000077B8, symSize: 0x58 }
  - { offsetInCU: 0xA9B0, offset: 0xA9B0, size: 0x8, addend: 0x0, symName: __ZNSt3__117__compressed_pairINS_12basic_stringIcNS_11char_traitsIcEENS_9allocatorIcEEE5__repES5_E6secondB8ue170006Ev, symObjAddr: 0x3FDC, symBinAddr: 0x100007890, symSize: 0x24 }
  - { offsetInCU: 0xA9D6, offset: 0xA9D6, size: 0x8, addend: 0x0, symName: __ZNSt3__122__compressed_pair_elemINS_9allocatorIcEELi1ELb1EE5__getB8ue170006Ev, symObjAddr: 0x4000, symBinAddr: 0x1000078B4, symSize: 0x14 }
  - { offsetInCU: 0xA9FC, offset: 0xA9FC, size: 0x8, addend: 0x0, symName: __ZNSt3__112basic_stringIcNS_11char_traitsIcEENS_9allocatorIcEEE10__align_itB8ue170006ILm16EEEmm, symObjAddr: 0x4014, symBinAddr: 0x1000078C8, symSize: 0x1C }
  - { offsetInCU: 0xAA2A, offset: 0xAA2A, size: 0x8, addend: 0x0, symName: __ZNSt3__19basic_iosIcNS_11char_traitsIcEEEC2B8ue170006Ev, symObjAddr: 0x4030, symBinAddr: 0x1000078E4, symSize: 0x44 }
  - { offsetInCU: 0xAA54, offset: 0xAA54, size: 0x8, addend: 0x0, symName: __ZNSt3__19basic_iosIcNS_11char_traitsIcEEE4initB8ue170006EPNS_15basic_streambufIcS2_EE, symObjAddr: 0x4074, symBinAddr: 0x100007928, symSize: 0x44 }
  - { offsetInCU: 0xAA8B, offset: 0xAA8B, size: 0x8, addend: 0x0, symName: __ZNSt3__18ios_baseC2B8ue170006Ev, symObjAddr: 0x40B8, symBinAddr: 0x10000796C, symSize: 0x24 }
  - { offsetInCU: 0xAAB5, offset: 0xAAB5, size: 0x8, addend: 0x0, symName: __ZNSt3__111char_traitsIcE3eofB8ue170006Ev, symObjAddr: 0x40DC, symBinAddr: 0x100007990, symSize: 0x8 }
  - { offsetInCU: 0xAAC9, offset: 0xAAC9, size: 0x8, addend: 0x0, symName: __ZNKSt3__18ios_base3eofB8ue170006Ev, symObjAddr: 0x40E4, symBinAddr: 0x100007998, symSize: 0x24 }
  - { offsetInCU: 0xAAF1, offset: 0xAAF1, size: 0x8, addend: 0x0, symName: __ZNKSt3__18ios_base4failB8ue170006Ev, symObjAddr: 0x4108, symBinAddr: 0x1000079BC, symSize: 0x28 }
  - { offsetInCU: 0xAB19, offset: 0xAB19, size: 0x8, addend: 0x0, symName: __ZNSt3__111char_traitsIcE12to_char_typeB8ue170006Ei, symObjAddr: 0x4130, symBinAddr: 0x1000079E4, symSize: 0x18 }
  - { offsetInCU: 0xAB3C, offset: 0xAB3C, size: 0x8, addend: 0x0, symName: __ZNKSt3__18ios_base3badB8ue170006Ev, symObjAddr: 0x4148, symBinAddr: 0x1000079FC, symSize: 0x24 }
  - { offsetInCU: 0xAB64, offset: 0xAB64, size: 0x8, addend: 0x0, symName: __ZNSt3__111char_traitsIcE6lengthB8ue170006EPKc, symObjAddr: 0x4358, symBinAddr: 0x100007C0C, symSize: 0x34 }
  - { offsetInCU: 0xABA0, offset: 0xABA0, size: 0x8, addend: 0x0, symName: __ZNKSt3__113basic_ostreamIcNS_11char_traitsIcEEE6sentrycvbB8ue170006Ev, symObjAddr: 0x438C, symBinAddr: 0x100007C40, symSize: 0x1C }
  - { offsetInCU: 0xABC6, offset: 0xABC6, size: 0x8, addend: 0x0, symName: __ZNSt3__119ostreambuf_iteratorIcNS_11char_traitsIcEEEC1B8ue170006ERNS_13basic_ostreamIcS2_EE, symObjAddr: 0x45E8, symBinAddr: 0x100007E9C, symSize: 0x34 }
  - { offsetInCU: 0xABFE, offset: 0xABFE, size: 0x8, addend: 0x0, symName: __ZNKSt3__18ios_base5flagsB8ue170006Ev, symObjAddr: 0x461C, symBinAddr: 0x100007ED0, symSize: 0x18 }
  - { offsetInCU: 0xAC26, offset: 0xAC26, size: 0x8, addend: 0x0, symName: __ZNKSt3__19basic_iosIcNS_11char_traitsIcEEE4fillB8ue170006Ev, symObjAddr: 0x4634, symBinAddr: 0x100007EE8, symSize: 0x64 }
  - { offsetInCU: 0xAC4E, offset: 0xAC4E, size: 0x8, addend: 0x0, symName: __ZNKSt3__119ostreambuf_iteratorIcNS_11char_traitsIcEEE6failedB8ue170006Ev, symObjAddr: 0x4698, symBinAddr: 0x100007F4C, symSize: 0x24 }
  - { offsetInCU: 0xAC74, offset: 0xAC74, size: 0x8, addend: 0x0, symName: __ZNSt3__19basic_iosIcNS_11char_traitsIcEEE8setstateB8ue170006Ej, symObjAddr: 0x46BC, symBinAddr: 0x100007F70, symSize: 0x2C }
  - { offsetInCU: 0xACA9, offset: 0xACA9, size: 0x8, addend: 0x0, symName: __ZNKSt3__18ios_base5widthB8ue170006Ev, symObjAddr: 0x46E8, symBinAddr: 0x100007F9C, symSize: 0x18 }
  - { offsetInCU: 0xACD1, offset: 0xACD1, size: 0x8, addend: 0x0, symName: __ZNSt3__115basic_streambufIcNS_11char_traitsIcEEE5sputnB8ue170006EPKcl, symObjAddr: 0x4700, symBinAddr: 0x100007FB4, symSize: 0x3C }
  - { offsetInCU: 0xAD13, offset: 0xAD13, size: 0x8, addend: 0x0, symName: __ZNSt3__112basic_stringIcNS_11char_traitsIcEENS_9allocatorIcEEEC1B8ue170006Emc, symObjAddr: 0x473C, symBinAddr: 0x100007FF0, symSize: 0x3C }
  - { offsetInCU: 0xAD5B, offset: 0xAD5B, size: 0x8, addend: 0x0, symName: __ZNKSt3__112basic_stringIcNS_11char_traitsIcEENS_9allocatorIcEEE4dataB8ue170006Ev, symObjAddr: 0x4778, symBinAddr: 0x10000802C, symSize: 0x28 }
  - { offsetInCU: 0xAD81, offset: 0xAD81, size: 0x8, addend: 0x0, symName: __ZNSt3__18ios_base5widthB8ue170006El, symObjAddr: 0x47A0, symBinAddr: 0x100008054, symSize: 0x2C }
  - { offsetInCU: 0xADC7, offset: 0xADC7, size: 0x8, addend: 0x0, symName: __ZNSt3__112basic_stringIcNS_11char_traitsIcEENS_9allocatorIcEEEC2B8ue170006Emc, symObjAddr: 0x47CC, symBinAddr: 0x100008080, symSize: 0x4C }
  - { offsetInCU: 0xAE0F, offset: 0xAE0F, size: 0x8, addend: 0x0, symName: __ZNKSt3__112basic_stringIcNS_11char_traitsIcEENS_9allocatorIcEEE13__get_pointerB8ue170006Ev, symObjAddr: 0x482C, symBinAddr: 0x1000080E0, symSize: 0x54 }
  - { offsetInCU: 0xAE35, offset: 0xAE35, size: 0x8, addend: 0x0, symName: __ZNKSt3__112basic_stringIcNS_11char_traitsIcEENS_9allocatorIcEEE9__is_longB8ue170006Ev, symObjAddr: 0x4880, symBinAddr: 0x100008134, symSize: 0x38 }
  - { offsetInCU: 0xAE5B, offset: 0xAE5B, size: 0x8, addend: 0x0, symName: __ZNKSt3__112basic_stringIcNS_11char_traitsIcEENS_9allocatorIcEEE18__get_long_pointerB8ue170006Ev, symObjAddr: 0x48B8, symBinAddr: 0x10000816C, symSize: 0x28 }
  - { offsetInCU: 0xAE81, offset: 0xAE81, size: 0x8, addend: 0x0, symName: __ZNKSt3__112basic_stringIcNS_11char_traitsIcEENS_9allocatorIcEEE19__get_short_pointerB8ue170006Ev, symObjAddr: 0x48E0, symBinAddr: 0x100008194, symSize: 0x28 }
  - { offsetInCU: 0xAEA7, offset: 0xAEA7, size: 0x8, addend: 0x0, symName: __ZNKSt3__117__compressed_pairINS_12basic_stringIcNS_11char_traitsIcEENS_9allocatorIcEEE5__repES5_E5firstB8ue170006Ev, symObjAddr: 0x4908, symBinAddr: 0x1000081BC, symSize: 0x24 }
  - { offsetInCU: 0xAECD, offset: 0xAECD, size: 0x8, addend: 0x0, symName: __ZNKSt3__122__compressed_pair_elemINS_12basic_stringIcNS_11char_traitsIcEENS_9allocatorIcEEE5__repELi0ELb0EE5__getB8ue170006Ev, symObjAddr: 0x492C, symBinAddr: 0x1000081E0, symSize: 0x14 }
  - { offsetInCU: 0xAEF3, offset: 0xAEF3, size: 0x8, addend: 0x0, symName: __ZNSt3__114pointer_traitsIPKcE10pointer_toB8ue170006ERS1_, symObjAddr: 0x4940, symBinAddr: 0x1000081F4, symSize: 0x14 }
  - { offsetInCU: 0xAF16, offset: 0xAF16, size: 0x8, addend: 0x0, symName: __ZNSt3__119ostreambuf_iteratorIcNS_11char_traitsIcEEEC2B8ue170006ERNS_13basic_ostreamIcS2_EE, symObjAddr: 0x4954, symBinAddr: 0x100008208, symSize: 0x54 }
  - { offsetInCU: 0xAF4E, offset: 0xAF4E, size: 0x8, addend: 0x0, symName: __ZNSt3__111char_traitsIcE11eq_int_typeB8ue170006Eii, symObjAddr: 0x49A8, symBinAddr: 0x10000825C, symSize: 0x28 }
  - { offsetInCU: 0xAF81, offset: 0xAF81, size: 0x8, addend: 0x0, symName: __ZNKSt3__19basic_iosIcNS_11char_traitsIcEEE5widenB8ue170006Ec, symObjAddr: 0x49D0, symBinAddr: 0x100008284, symSize: 0x84 }
  - { offsetInCU: 0xAFEF, offset: 0xAFEF, size: 0x8, addend: 0x0, symName: __ZNKSt3__15ctypeIcE5widenB8ue170006Ec, symObjAddr: 0x4A80, symBinAddr: 0x100008334, symSize: 0x38 }
  - { offsetInCU: 0xB024, offset: 0xB024, size: 0x8, addend: 0x0, symName: __ZNSt3__18ios_base8setstateB8ue170006Ej, symObjAddr: 0x4AB8, symBinAddr: 0x10000836C, symSize: 0x34 }
  - { offsetInCU: 0x51, offset: 0xB10F, size: 0x8, addend: 0x0, symName: __ZN2yy6parser12yypact_ninf_E, symObjAddr: 0x16563, symBinAddr: 0x10001ED40, symSize: 0x0 }
  - { offsetInCU: 0xBA9, offset: 0xBC67, size: 0x8, addend: 0x0, symName: __ZN2yy6parser13yytable_ninf_E, symObjAddr: 0x16564, symBinAddr: 0x10001ED41, symSize: 0x0 }
  - { offsetInCU: 0xBC1, offset: 0xBC7F, size: 0x8, addend: 0x0, symName: __ZN2yy6parser7yypact_E, symObjAddr: 0x16565, symBinAddr: 0x10001ED42, symSize: 0x0 }
  - { offsetInCU: 0xBD9, offset: 0xBC97, size: 0x8, addend: 0x0, symName: __ZN2yy6parser9yydefact_E, symObjAddr: 0x165A3, symBinAddr: 0x10001ED80, symSize: 0x0 }
  - { offsetInCU: 0xBF1, offset: 0xBCAF, size: 0x8, addend: 0x0, symName: __ZN2yy6parser8yypgoto_E, symObjAddr: 0x165E1, symBinAddr: 0x10001EDBE, symSize: 0x0 }
  - { offsetInCU: 0xC09, offset: 0xBCC7, size: 0x8, addend: 0x0, symName: __ZN2yy6parser10yydefgoto_E, symObjAddr: 0x165F5, symBinAddr: 0x10001EDD2, symSize: 0x0 }
  - { offsetInCU: 0xC21, offset: 0xBCDF, size: 0x8, addend: 0x0, symName: __ZN2yy6parser8yytable_E, symObjAddr: 0x16609, symBinAddr: 0x10001EDE6, symSize: 0x0 }
  - { offsetInCU: 0xC39, offset: 0xBCF7, size: 0x8, addend: 0x0, symName: __ZN2yy6parser8yycheck_E, symObjAddr: 0x16643, symBinAddr: 0x10001EE20, symSize: 0x0 }
  - { offsetInCU: 0xC51, offset: 0xBD0F, size: 0x8, addend: 0x0, symName: __ZN2yy6parser7yystos_E, symObjAddr: 0x1667D, symBinAddr: 0x10001EE5A, symSize: 0x0 }
  - { offsetInCU: 0xC69, offset: 0xBD27, size: 0x8, addend: 0x0, symName: __ZN2yy6parser5yyr1_E, symObjAddr: 0x166BB, symBinAddr: 0x10001EE98, symSize: 0x0 }
  - { offsetInCU: 0xC81, offset: 0xBD3F, size: 0x8, addend: 0x0, symName: __ZN2yy6parser5yyr2_E, symObjAddr: 0x166E1, symBinAddr: 0x10001EEBE, symSize: 0x0 }
  - { offsetInCU: 0xC8F, offset: 0xBD4D, size: 0x8, addend: 0x0, symName: __ZN2yylsIcEERNSt3__113basic_ostreamIT_NS1_11char_traitsIS3_EEEES7_RKNS_8locationE, symObjAddr: 0x3108, symBinAddr: 0x10000B4C0, symSize: 0x188 }
  - { offsetInCU: 0xCE4, offset: 0xBDA2, size: 0x8, addend: 0x0, symName: __ZN2yylsIcEERNSt3__113basic_ostreamIT_NS1_11char_traitsIS3_EEEES7_RKNS_8positionE, symObjAddr: 0x15618, symBinAddr: 0x10001CBC8, symSize: 0x78 }
  - { offsetInCU: 0x10286, offset: 0x1B344, size: 0x8, addend: 0x0, symName: __ZNSt3__17advanceB8ue170006INS_11__wrap_iterIPP7DeclASTEEllvEEvRT_T0_, symObjAddr: 0xCF30, symBinAddr: 0x1000145C4, symSize: 0x38 }
  - { offsetInCU: 0x11BAF, offset: 0x1CC6D, size: 0x8, addend: 0x0, symName: __ZNSt3__1lsB8ue170006IcNS_11char_traitsIcEENS_9allocatorIcEEEERNS_13basic_ostreamIT_T0_EES9_RKNS_12basic_stringIS6_S7_T1_EE, symObjAddr: 0x32D8, symBinAddr: 0x10000B648, symSize: 0x4C }
  - { offsetInCU: 0x11C07, offset: 0x1CCC5, size: 0x8, addend: 0x0, symName: __ZNSt3__112__to_addressB8ue170006IN2yy6parser17stack_symbol_typeEEEPT_S5_, symObjAddr: 0x3778, symBinAddr: 0x10000BA64, symSize: 0x14 }
  - { offsetInCU: 0x11C3C, offset: 0x1CCFA, size: 0x8, addend: 0x0, symName: __ZNSt3__119__libcpp_deallocateB8ue170006EPvmm, symObjAddr: 0x3868, symBinAddr: 0x10000BB54, symSize: 0x30 }
  - { offsetInCU: 0x11C85, offset: 0x1CD43, size: 0x8, addend: 0x0, symName: __ZNSt3__127__do_deallocate_handle_sizeB8ue170006IJEEEvPvmDpT_, symObjAddr: 0x3898, symBinAddr: 0x10000BB84, symSize: 0x28 }
  - { offsetInCU: 0x11CC5, offset: 0x1CD83, size: 0x8, addend: 0x0, symName: __ZNSt3__124__libcpp_operator_deleteB8ue170006IJPvEEEvDpT_, symObjAddr: 0x38C0, symBinAddr: 0x10000BBAC, symSize: 0x24 }
  - { offsetInCU: 0x11CFB, offset: 0x1CDB9, size: 0x8, addend: 0x0, symName: __ZNSt3__122__make_exception_guardB8ue170006INS_6vectorIP7DeclASTNS_9allocatorIS3_EEE16__destroy_vectorEEENS_28__exception_guard_exceptionsIT_EES9_, symObjAddr: 0x3E68, symBinAddr: 0x10000C154, symSize: 0x40 }
  - { offsetInCU: 0x11D30, offset: 0x1CDEE, size: 0x8, addend: 0x0, symName: __ZNSt3__119__allocate_at_leastB8ue170006INS_9allocatorIP7DeclASTEEEENS_19__allocation_resultINS_16allocator_traitsIT_E7pointerEEERS7_m, symObjAddr: 0x4150, symBinAddr: 0x10000C43C, symSize: 0x40 }
  - { offsetInCU: 0x11D73, offset: 0x1CE31, size: 0x8, addend: 0x0, symName: __ZNSt3__13minB8ue170006ImEERKT_S3_S3_, symObjAddr: 0x428C, symBinAddr: 0x10000C578, symSize: 0x2C }
  - { offsetInCU: 0x11FB7, offset: 0x1D075, size: 0x8, addend: 0x0, symName: __ZNSt3__13minB8ue170006ImNS_6__lessIvvEEEERKT_S5_S5_T0_, symObjAddr: 0x42F0, symBinAddr: 0x10000C5DC, symSize: 0x54 }
  - { offsetInCU: 0x12058, offset: 0x1D116, size: 0x8, addend: 0x0, symName: __ZNSt3__112__to_addressB8ue170006IP7DeclASTEEPT_S4_, symObjAddr: 0x4648, symBinAddr: 0x10000C7D0, symSize: 0x14 }
  - { offsetInCU: 0x1208D, offset: 0x1D14B, size: 0x8, addend: 0x0, symName: __ZNSt3__130__uninitialized_allocator_copyB8ue170006INS_9allocatorIP7DeclASTEEPS3_S5_S5_EET2_RT_T0_T1_S6_, symObjAddr: 0x46F8, symBinAddr: 0x10000C880, symSize: 0x80 }
  - { offsetInCU: 0x1212A, offset: 0x1D1E8, size: 0x8, addend: 0x0, symName: __ZNSt3__114__unwrap_rangeB8ue170006IPP7DeclASTS3_EENS_4pairIT0_S5_EET_S7_, symObjAddr: 0x47E8, symBinAddr: 0x10000C970, symSize: 0x60 }
  - { offsetInCU: 0x12176, offset: 0x1D234, size: 0x8, addend: 0x0, symName: __ZNSt3__135__uninitialized_allocator_copy_implB8ue170006INS_9allocatorIP7DeclASTEES3_S3_S3_LPv0EEEPT2_RT_PT0_SB_S7_, symObjAddr: 0x4848, symBinAddr: 0x10000C9D0, symSize: 0x38 }
  - { offsetInCU: 0x121F9, offset: 0x1D2B7, size: 0x8, addend: 0x0, symName: __ZNSt3__113__unwrap_iterB8ue170006IPP7DeclASTNS_18__unwrap_iter_implIS3_Lb1EEELi0EEEDTclsrT0_8__unwrapclsr3stdE7declvalIT_EEEES7_, symObjAddr: 0x4880, symBinAddr: 0x10000CA08, symSize: 0x24 }
  - { offsetInCU: 0x1223D, offset: 0x1D2FB, size: 0x8, addend: 0x0, symName: __ZNSt3__113__rewrap_iterB8ue170006IPP7DeclASTS3_NS_18__unwrap_iter_implIS3_Lb1EEEEET_S6_T0_, symObjAddr: 0x48A4, symBinAddr: 0x10000CA2C, symSize: 0x3C }
  - { offsetInCU: 0x12292, offset: 0x1D350, size: 0x8, addend: 0x0, symName: __ZNSt3__19make_pairB8ue170006IPP7DeclASTS3_EENS_4pairINS_18__unwrap_ref_decayIT_E4typeENS5_IT0_E4typeEEEOS6_OS9_, symObjAddr: 0x48E0, symBinAddr: 0x10000CA68, symSize: 0x38 }
  - { offsetInCU: 0x12416, offset: 0x1D4D4, size: 0x8, addend: 0x0, symName: __ZNSt3__14copyB8ue170006IPP7DeclASTS3_EET0_T_S5_S4_, symObjAddr: 0x4988, symBinAddr: 0x10000CB10, symSize: 0x40 }
  - { offsetInCU: 0x12470, offset: 0x1D52E, size: 0x8, addend: 0x0, symName: __ZNSt3__16__copyB8ue170006INS_17_ClassicAlgPolicyEPP7DeclASTS4_S4_EENS_4pairIT0_T2_EES6_T1_S7_, symObjAddr: 0x49C8, symBinAddr: 0x10000CB50, symSize: 0x44 }
  - { offsetInCU: 0x124DC, offset: 0x1D59A, size: 0x8, addend: 0x0, symName: __ZNSt3__123__dispatch_copy_or_moveB8ue170006INS_17_ClassicAlgPolicyENS_11__copy_loopIS1_EENS_14__copy_trivialEPP7DeclASTS7_S7_EENS_4pairIT2_T4_EES9_T3_SA_, symObjAddr: 0x4A0C, symBinAddr: 0x10000CB94, symSize: 0x44 }
  - { offsetInCU: 0x1255A, offset: 0x1D618, size: 0x8, addend: 0x0, symName: __ZNSt3__121__unwrap_and_dispatchB8ue170006INS_10__overloadINS_11__copy_loopINS_17_ClassicAlgPolicyEEENS_14__copy_trivialEEEPP7DeclASTS9_S9_Li0EEENS_4pairIT0_T2_EESB_T1_SC_, symObjAddr: 0x4A50, symBinAddr: 0x10000CBD8, symSize: 0xB4 }
  - { offsetInCU: 0x1266C, offset: 0x1D72A, size: 0x8, addend: 0x0, symName: __ZNSt3__114__rewrap_rangeB8ue170006IPP7DeclASTS3_EET_S4_T0_, symObjAddr: 0x4B4C, symBinAddr: 0x10000CCD4, symSize: 0x2C }
  - { offsetInCU: 0x126B8, offset: 0x1D776, size: 0x8, addend: 0x0, symName: __ZNSt3__119__copy_trivial_implB8ue170006IP7DeclASTS2_EENS_4pairIPT_PT0_EES5_S5_S7_, symObjAddr: 0x4B78, symBinAddr: 0x10000CD00, symSize: 0x80 }
  - { offsetInCU: 0x12721, offset: 0x1D7DF, size: 0x8, addend: 0x0, symName: __ZNSt3__119__constexpr_memmoveB8ue170006IP7DeclASTS2_Li0EEEPT_S4_PT0_NS_15__element_countE, symObjAddr: 0x4BF8, symBinAddr: 0x10000CD80, symSize: 0x64 }
  - { offsetInCU: 0x12790, offset: 0x1D84E, size: 0x8, addend: 0x0, symName: __ZNSt3__19make_pairB8ue170006IRPP7DeclASTS3_EENS_4pairINS_18__unwrap_ref_decayIT_E4typeENS6_IT0_E4typeEEEOS7_OSA_, symObjAddr: 0x4C5C, symBinAddr: 0x10000CDE4, symSize: 0x38 }
  - { offsetInCU: 0x12832, offset: 0x1D8F0, size: 0x8, addend: 0x0, symName: __ZNSt3__1neB8ue170006IPP7TermASTEEbRKNS_11__wrap_iterIT_EES8_, symObjAddr: 0x53E0, symBinAddr: 0x10000D568, symSize: 0x34 }
  - { offsetInCU: 0x12875, offset: 0x1D933, size: 0x8, addend: 0x0, symName: __ZNSt3__1eqB8ue170006IPP7TermASTEEbRKNS_11__wrap_iterIT_EES8_, symObjAddr: 0x5554, symBinAddr: 0x10000D6DC, symSize: 0x48 }
  - { offsetInCU: 0x128B8, offset: 0x1D976, size: 0x8, addend: 0x0, symName: __ZNSt3__1neB8ue170006IPP9FactorASTEEbRKNS_11__wrap_iterIT_EES8_, symObjAddr: 0x56D4, symBinAddr: 0x10000D85C, symSize: 0x34 }
  - { offsetInCU: 0x128FB, offset: 0x1D9B9, size: 0x8, addend: 0x0, symName: __ZNSt3__1eqB8ue170006IPP9FactorASTEEbRKNS_11__wrap_iterIT_EES8_, symObjAddr: 0x581C, symBinAddr: 0x10000D9A4, symSize: 0x48 }
  - { offsetInCU: 0x1293E, offset: 0x1D9FC, size: 0x8, addend: 0x0, symName: __ZNSt3__112__to_addressB8ue170006IP9FactorASTEEPT_S4_, symObjAddr: 0x5C30, symBinAddr: 0x10000DDB8, symSize: 0x14 }
  - { offsetInCU: 0x12973, offset: 0x1DA31, size: 0x8, addend: 0x0, symName: __ZNSt3__112__to_addressB8ue170006IcEEPT_S2_, symObjAddr: 0x60F4, symBinAddr: 0x10000E27C, symSize: 0x14 }
  - { offsetInCU: 0x129A8, offset: 0x1DA66, size: 0x8, addend: 0x0, symName: __ZNSt3__112__to_addressB8ue170006IP7TermASTEEPT_S4_, symObjAddr: 0x65B8, symBinAddr: 0x10000E72C, symSize: 0x14 }
  - { offsetInCU: 0x129DD, offset: 0x1DA9B, size: 0x8, addend: 0x0, symName: __ZNSt3__122__make_exception_guardB8ue170006INS_6vectorINS_12basic_stringIcNS_11char_traitsIcEENS_9allocatorIcEEEENS5_IS7_EEE16__destroy_vectorEEENS_28__exception_guard_exceptionsIT_EESC_, symObjAddr: 0x6CCC, symBinAddr: 0x10000EE40, symSize: 0x40 }
  - { offsetInCU: 0x12A12, offset: 0x1DAD0, size: 0x8, addend: 0x0, symName: __ZNSt3__119__allocate_at_leastB8ue170006INS_9allocatorINS_12basic_stringIcNS_11char_traitsIcEENS1_IcEEEEEEEENS_19__allocation_resultINS_16allocator_traitsIT_E7pointerEEERSA_m, symObjAddr: 0x6FBC, symBinAddr: 0x10000F130, symSize: 0x40 }
  - { offsetInCU: 0x12A55, offset: 0x1DB13, size: 0x8, addend: 0x0, symName: __ZNSt3__112__to_addressB8ue170006INS_12basic_stringIcNS_11char_traitsIcEENS_9allocatorIcEEEEEEPT_S8_, symObjAddr: 0x72A4, symBinAddr: 0x10000F418, symSize: 0x14 }
  - { offsetInCU: 0x12A8A, offset: 0x1DB48, size: 0x8, addend: 0x0, symName: __ZNSt3__130__uninitialized_allocator_copyB8ue170006INS_9allocatorINS_12basic_stringIcNS_11char_traitsIcEENS1_IcEEEEEEPS6_S8_S8_EET2_RT_T0_T1_S9_, symObjAddr: 0x7354, symBinAddr: 0x10000F4C8, symSize: 0x80 }
  - { offsetInCU: 0x12B27, offset: 0x1DBE5, size: 0x8, addend: 0x0, symName: __ZNSt3__114__unwrap_rangeB8ue170006IPNS_12basic_stringIcNS_11char_traitsIcEENS_9allocatorIcEEEES7_EENS_4pairIT0_S9_EET_SB_, symObjAddr: 0x744C, symBinAddr: 0x10000F5C0, symSize: 0x60 }
  - { offsetInCU: 0x12B73, offset: 0x1DC31, size: 0x8, addend: 0x0, symName: __ZNSt3__135__uninitialized_allocator_copy_implB8ue170006INS_9allocatorINS_12basic_stringIcNS_11char_traitsIcEENS1_IcEEEEEEPS6_S8_S8_EET2_RT_T0_T1_S9_, symObjAddr: 0x74AC, symBinAddr: 0x10000F620, symSize: 0xF4 }
  - { offsetInCU: 0x12C11, offset: 0x1DCCF, size: 0x8, addend: 0x0, symName: __ZNSt3__113__unwrap_iterB8ue170006IPNS_12basic_stringIcNS_11char_traitsIcEENS_9allocatorIcEEEENS_18__unwrap_iter_implIS7_Lb1EEELi0EEEDTclsrT0_8__unwrapclsr3stdE7declvalIT_EEEESB_, symObjAddr: 0x75A0, symBinAddr: 0x10000F714, symSize: 0x24 }
  - { offsetInCU: 0x12C55, offset: 0x1DD13, size: 0x8, addend: 0x0, symName: __ZNSt3__113__rewrap_iterB8ue170006IPNS_12basic_stringIcNS_11char_traitsIcEENS_9allocatorIcEEEES7_NS_18__unwrap_iter_implIS7_Lb1EEEEET_SA_T0_, symObjAddr: 0x75C4, symBinAddr: 0x10000F738, symSize: 0x3C }
  - { offsetInCU: 0x12CAA, offset: 0x1DD68, size: 0x8, addend: 0x0, symName: __ZNSt3__19make_pairB8ue170006IPNS_12basic_stringIcNS_11char_traitsIcEENS_9allocatorIcEEEES7_EENS_4pairINS_18__unwrap_ref_decayIT_E4typeENS9_IT0_E4typeEEEOSA_OSD_, symObjAddr: 0x7600, symBinAddr: 0x10000F774, symSize: 0x38 }
  - { offsetInCU: 0x12DCE, offset: 0x1DE8C, size: 0x8, addend: 0x0, symName: __ZNSt3__122__make_exception_guardB8ue170006INS_29_AllocatorDestroyRangeReverseINS_9allocatorINS_12basic_stringIcNS_11char_traitsIcEENS2_IcEEEEEEPS7_EEEENS_28__exception_guard_exceptionsIT_EESC_, symObjAddr: 0x76A8, symBinAddr: 0x10000F81C, symSize: 0x4C }
  - { offsetInCU: 0x12E04, offset: 0x1DEC2, size: 0x8, addend: 0x0, symName: __ZNSt3__119__allocator_destroyB8ue170006INS_9allocatorINS_12basic_stringIcNS_11char_traitsIcEENS1_IcEEEEEENS_16reverse_iteratorIPS6_EESA_EEvRT_T0_T1_, symObjAddr: 0x7938, symBinAddr: 0x10000FAAC, symSize: 0x70 }
  - { offsetInCU: 0x12E68, offset: 0x1DF26, size: 0x8, addend: 0x0, symName: __ZNSt3__1neB8ue170006IPNS_12basic_stringIcNS_11char_traitsIcEENS_9allocatorIcEEEES7_EEbRKNS_16reverse_iteratorIT_EERKNS8_IT0_EE, symObjAddr: 0x79DC, symBinAddr: 0x10000FB50, symSize: 0x48 }
  - { offsetInCU: 0x12EB4, offset: 0x1DF72, size: 0x8, addend: 0x0, symName: __ZNSt3__112__to_addressB8ue170006INS_16reverse_iteratorIPNS_12basic_stringIcNS_11char_traitsIcEENS_9allocatorIcEEEEEEvEEu7__decayIDTclsr19__to_address_helperIT_EE6__callclsr3stdE7declvalIRKSA_EEEEESC_, symObjAddr: 0x7A50, symBinAddr: 0x10000FBC4, symSize: 0x24 }
  - { offsetInCU: 0x12F67, offset: 0x1E025, size: 0x8, addend: 0x0, symName: __ZNSt3__122__make_exception_guardB8ue170006INS_6vectorIP11OperatorASTNS_9allocatorIS3_EEE16__destroy_vectorEEENS_28__exception_guard_exceptionsIT_EES9_, symObjAddr: 0x8194, symBinAddr: 0x100010308, symSize: 0x40 }
  - { offsetInCU: 0x12F9C, offset: 0x1E05A, size: 0x8, addend: 0x0, symName: __ZNSt3__119__allocate_at_leastB8ue170006INS_9allocatorIP11OperatorASTEEEENS_19__allocation_resultINS_16allocator_traitsIT_E7pointerEEERS7_m, symObjAddr: 0x847C, symBinAddr: 0x1000105F0, symSize: 0x40 }
  - { offsetInCU: 0x12FDF, offset: 0x1E09D, size: 0x8, addend: 0x0, symName: __ZNSt3__112__to_addressB8ue170006IP11OperatorASTEEPT_S4_, symObjAddr: 0x8740, symBinAddr: 0x1000108B4, symSize: 0x14 }
  - { offsetInCU: 0x13014, offset: 0x1E0D2, size: 0x8, addend: 0x0, symName: __ZNSt3__130__uninitialized_allocator_copyB8ue170006INS_9allocatorIP11OperatorASTEEPS3_S5_S5_EET2_RT_T0_T1_S6_, symObjAddr: 0x87F0, symBinAddr: 0x100010964, symSize: 0x80 }
  - { offsetInCU: 0x130B1, offset: 0x1E16F, size: 0x8, addend: 0x0, symName: __ZNSt3__114__unwrap_rangeB8ue170006IPP11OperatorASTS3_EENS_4pairIT0_S5_EET_S7_, symObjAddr: 0x88E0, symBinAddr: 0x100010A54, symSize: 0x60 }
  - { offsetInCU: 0x130FD, offset: 0x1E1BB, size: 0x8, addend: 0x0, symName: __ZNSt3__135__uninitialized_allocator_copy_implB8ue170006INS_9allocatorIP11OperatorASTEES3_S3_S3_LPv0EEEPT2_RT_PT0_SB_S7_, symObjAddr: 0x8940, symBinAddr: 0x100010AB4, symSize: 0x38 }
  - { offsetInCU: 0x13180, offset: 0x1E23E, size: 0x8, addend: 0x0, symName: __ZNSt3__113__unwrap_iterB8ue170006IPP11OperatorASTNS_18__unwrap_iter_implIS3_Lb1EEELi0EEEDTclsrT0_8__unwrapclsr3stdE7declvalIT_EEEES7_, symObjAddr: 0x8978, symBinAddr: 0x100010AEC, symSize: 0x24 }
  - { offsetInCU: 0x131C4, offset: 0x1E282, size: 0x8, addend: 0x0, symName: __ZNSt3__113__rewrap_iterB8ue170006IPP11OperatorASTS3_NS_18__unwrap_iter_implIS3_Lb1EEEEET_S6_T0_, symObjAddr: 0x899C, symBinAddr: 0x100010B10, symSize: 0x3C }
  - { offsetInCU: 0x13219, offset: 0x1E2D7, size: 0x8, addend: 0x0, symName: __ZNSt3__19make_pairB8ue170006IPP11OperatorASTS3_EENS_4pairINS_18__unwrap_ref_decayIT_E4typeENS5_IT0_E4typeEEEOS6_OS9_, symObjAddr: 0x89D8, symBinAddr: 0x100010B4C, symSize: 0x38 }
  - { offsetInCU: 0x1336D, offset: 0x1E42B, size: 0x8, addend: 0x0, symName: __ZNSt3__14copyB8ue170006IPP11OperatorASTS3_EET0_T_S5_S4_, symObjAddr: 0x8A80, symBinAddr: 0x100010BF4, symSize: 0x40 }
  - { offsetInCU: 0x133C7, offset: 0x1E485, size: 0x8, addend: 0x0, symName: __ZNSt3__16__copyB8ue170006INS_17_ClassicAlgPolicyEPP11OperatorASTS4_S4_EENS_4pairIT0_T2_EES6_T1_S7_, symObjAddr: 0x8AC0, symBinAddr: 0x100010C34, symSize: 0x44 }
  - { offsetInCU: 0x13433, offset: 0x1E4F1, size: 0x8, addend: 0x0, symName: __ZNSt3__123__dispatch_copy_or_moveB8ue170006INS_17_ClassicAlgPolicyENS_11__copy_loopIS1_EENS_14__copy_trivialEPP11OperatorASTS7_S7_EENS_4pairIT2_T4_EES9_T3_SA_, symObjAddr: 0x8B04, symBinAddr: 0x100010C78, symSize: 0x44 }
  - { offsetInCU: 0x134B1, offset: 0x1E56F, size: 0x8, addend: 0x0, symName: __ZNSt3__121__unwrap_and_dispatchB8ue170006INS_10__overloadINS_11__copy_loopINS_17_ClassicAlgPolicyEEENS_14__copy_trivialEEEPP11OperatorASTS9_S9_Li0EEENS_4pairIT0_T2_EESB_T1_SC_, symObjAddr: 0x8B48, symBinAddr: 0x100010CBC, symSize: 0xB4 }
  - { offsetInCU: 0x13541, offset: 0x1E5FF, size: 0x8, addend: 0x0, symName: __ZNSt3__114__rewrap_rangeB8ue170006IPP11OperatorASTS3_EET_S4_T0_, symObjAddr: 0x8C44, symBinAddr: 0x100010DB8, symSize: 0x2C }
  - { offsetInCU: 0x1358D, offset: 0x1E64B, size: 0x8, addend: 0x0, symName: __ZNSt3__119__copy_trivial_implB8ue170006IP11OperatorASTS2_EENS_4pairIPT_PT0_EES5_S5_S7_, symObjAddr: 0x8C70, symBinAddr: 0x100010DE4, symSize: 0x80 }
  - { offsetInCU: 0x135F6, offset: 0x1E6B4, size: 0x8, addend: 0x0, symName: __ZNSt3__119__constexpr_memmoveB8ue170006IP11OperatorASTS2_Li0EEEPT_S4_PT0_NS_15__element_countE, symObjAddr: 0x8CF0, symBinAddr: 0x100010E64, symSize: 0x64 }
  - { offsetInCU: 0x13665, offset: 0x1E723, size: 0x8, addend: 0x0, symName: __ZNSt3__19make_pairB8ue170006IRPP11OperatorASTS3_EENS_4pairINS_18__unwrap_ref_decayIT_E4typeENS6_IT0_E4typeEEEOS7_OSA_, symObjAddr: 0x8D54, symBinAddr: 0x100010EC8, symSize: 0x38 }
  - { offsetInCU: 0x13707, offset: 0x1E7C5, size: 0x8, addend: 0x0, symName: __ZNSt3__1neB8ue170006IPP11OperatorASTEEbRKNS_11__wrap_iterIT_EES8_, symObjAddr: 0x9320, symBinAddr: 0x100011494, symSize: 0x34 }
  - { offsetInCU: 0x1374A, offset: 0x1E808, size: 0x8, addend: 0x0, symName: __ZNSt3__1eqB8ue170006IPP11OperatorASTEEbRKNS_11__wrap_iterIT_EES8_, symObjAddr: 0x943C, symBinAddr: 0x1000115B0, symSize: 0x48 }
  - { offsetInCU: 0x1378D, offset: 0x1E84B, size: 0x8, addend: 0x0, symName: __ZNSt3__122__make_exception_guardB8ue170006INS_6vectorIN2yy6parser17stack_symbol_typeENS_9allocatorIS4_EEE16__destroy_vectorEEENS_28__exception_guard_exceptionsIT_EESA_, symObjAddr: 0xA4E0, symBinAddr: 0x1000125E8, symSize: 0x40 }
  - { offsetInCU: 0x137C2, offset: 0x1E880, size: 0x8, addend: 0x0, symName: __ZNSt3__119__allocate_at_leastB8ue170006INS_9allocatorIN2yy6parser17stack_symbol_typeEEEEENS_19__allocation_resultINS_16allocator_traitsIT_E7pointerEEERS8_m, symObjAddr: 0xA880, symBinAddr: 0x100012988, symSize: 0x40 }
  - { offsetInCU: 0x13805, offset: 0x1E8C3, size: 0x8, addend: 0x0, symName: __ZNSt3__13maxB8ue170006ImEERKT_S3_S3_, symObjAddr: 0xB110, symBinAddr: 0x100013218, symSize: 0x2C }
  - { offsetInCU: 0x13848, offset: 0x1E906, size: 0x8, addend: 0x0, symName: __ZNSt3__13maxB8ue170006ImNS_6__lessIvvEEEERKT_S5_S5_T0_, symObjAddr: 0xB13C, symBinAddr: 0x100013244, symSize: 0x54 }
  - { offsetInCU: 0x138A2, offset: 0x1E960, size: 0x8, addend: 0x0, symName: __ZNSt3__142__uninitialized_allocator_move_if_noexceptB8ue170006INS_9allocatorIN2yy6parser17stack_symbol_typeEEENS_16reverse_iteratorIPS4_EES8_S8_EET2_RT_T0_T1_S9_, symObjAddr: 0xB3C8, symBinAddr: 0x1000134D0, symSize: 0x12C }
  - { offsetInCU: 0x13942, offset: 0x1EA00, size: 0x8, addend: 0x0, symName: __ZNSt3__14swapB8ue170006IPN2yy6parser17stack_symbol_typeEEENS_9enable_ifIXaasr21is_move_constructibleIT_EE5valuesr18is_move_assignableIS6_EE5valueEvE4typeERS6_S9_, symObjAddr: 0xB540, symBinAddr: 0x100013648, symSize: 0x3C }
  - { offsetInCU: 0x13994, offset: 0x1EA52, size: 0x8, addend: 0x0, symName: __ZNSt3__122__make_exception_guardB8ue170006INS_29_AllocatorDestroyRangeReverseINS_9allocatorIN2yy6parser17stack_symbol_typeEEENS_16reverse_iteratorIPS5_EEEEEENS_28__exception_guard_exceptionsIT_EESC_, symObjAddr: 0xB57C, symBinAddr: 0x100013684, symSize: 0x4C }
  - { offsetInCU: 0x139CA, offset: 0x1EA88, size: 0x8, addend: 0x0, symName: __ZNSt3__1neB8ue170006IPN2yy6parser17stack_symbol_typeES4_EEbRKNS_16reverse_iteratorIT_EERKNS5_IT0_EE, symObjAddr: 0xB60C, symBinAddr: 0x100013714, symSize: 0x48 }
  - { offsetInCU: 0x13A16, offset: 0x1EAD4, size: 0x8, addend: 0x0, symName: __ZNSt3__112__to_addressB8ue170006INS_16reverse_iteratorIPN2yy6parser17stack_symbol_typeEEEvEEu7__decayIDTclsr19__to_address_helperIT_EE6__callclsr3stdE7declvalIRKS7_EEEEES9_, symObjAddr: 0xB654, symBinAddr: 0x10001375C, symSize: 0x24 }
  - { offsetInCU: 0x13A76, offset: 0x1EB34, size: 0x8, addend: 0x0, symName: __ZNSt3__119__allocator_destroyB8ue170006INS_9allocatorIN2yy6parser17stack_symbol_typeEEENS_16reverse_iteratorINS6_IPS4_EEEES9_EEvRT_T0_T1_, symObjAddr: 0xB904, symBinAddr: 0x100013A0C, symSize: 0x70 }
  - { offsetInCU: 0x13ADC, offset: 0x1EB9A, size: 0x8, addend: 0x0, symName: __ZNSt3__1neB8ue170006INS_16reverse_iteratorIPN2yy6parser17stack_symbol_typeEEES6_EEbRKNS1_IT_EERKNS1_IT0_EE, symObjAddr: 0xB9B0, symBinAddr: 0x100013AB8, symSize: 0x60 }
  - { offsetInCU: 0x13B28, offset: 0x1EBE6, size: 0x8, addend: 0x0, symName: __ZNSt3__112__to_addressB8ue170006INS_16reverse_iteratorINS1_IPN2yy6parser17stack_symbol_typeEEEEEvEEu7__decayIDTclsr19__to_address_helperIT_EE6__callclsr3stdE7declvalIRKS8_EEEEESA_, symObjAddr: 0xBA10, symBinAddr: 0x100013B18, symSize: 0x24 }
  - { offsetInCU: 0x13BA7, offset: 0x1EC65, size: 0x8, addend: 0x0, symName: __ZNSt3__18distanceB8ue170006INS_11__wrap_iterIPP7DeclASTEEEENS_15iterator_traitsIT_E15difference_typeES7_S7_, symObjAddr: 0xCE70, symBinAddr: 0x100014504, symSize: 0x3C }
  - { offsetInCU: 0x13BEA, offset: 0x1ECA8, size: 0x8, addend: 0x0, symName: __ZNSt3__1miB8ue170006IPKP7DeclASTPS2_EEDTmicldtfp_4baseEcldtfp0_4baseEERKNS_11__wrap_iterIT_EERKNS7_IT0_EE, symObjAddr: 0xCEAC, symBinAddr: 0x100014540, symSize: 0x48 }
  - { offsetInCU: 0x13C36, offset: 0x1ECF4, size: 0x8, addend: 0x0, symName: __ZNSt3__14nextB8ue170006INS_11__wrap_iterIPP7DeclASTEEEENS_9enable_ifIXsr29__has_input_iterator_categoryIT_EE5valueES7_E4typeES7_NS_15iterator_traitsIS7_E15difference_typeE, symObjAddr: 0xCEF4, symBinAddr: 0x100014588, symSize: 0x3C }
  - { offsetInCU: 0x13C79, offset: 0x1ED37, size: 0x8, addend: 0x0, symName: __ZNSt3__14copyB8ue170006INS_11__wrap_iterIPP7DeclASTEES4_EET0_T_S7_S6_, symObjAddr: 0xD130, symBinAddr: 0x1000147C4, symSize: 0x50 }
  - { offsetInCU: 0x13CD3, offset: 0x1ED91, size: 0x8, addend: 0x0, symName: __ZNSt3__121__convert_to_integralB8ue170006El, symObjAddr: 0xD520, symBinAddr: 0x100014BB4, symSize: 0x14 }
  - { offsetInCU: 0x13CFF, offset: 0x1EDBD, size: 0x8, addend: 0x0, symName: __ZNSt3__19__advanceB8ue170006INS_11__wrap_iterIPP7DeclASTEEEEvRT_NS_15iterator_traitsIS6_E15difference_typeENS_26random_access_iterator_tagE, symObjAddr: 0xD534, symBinAddr: 0x100014BC8, symSize: 0x2C }
  - { offsetInCU: 0x13D49, offset: 0x1EE07, size: 0x8, addend: 0x0, symName: __ZNSt3__130__uninitialized_allocator_copyB8ue170006INS_9allocatorIP7DeclASTEENS_11__wrap_iterIPS3_EES7_S6_EET2_RT_T0_T1_S8_, symObjAddr: 0xD588, symBinAddr: 0x100014C1C, symSize: 0x90 }
  - { offsetInCU: 0x13DE6, offset: 0x1EEA4, size: 0x8, addend: 0x0, symName: __ZNSt3__114__unwrap_rangeB8ue170006INS_11__wrap_iterIPP7DeclASTEES4_EENS_4pairIT0_S7_EET_S9_, symObjAddr: 0xD618, symBinAddr: 0x100014CAC, symSize: 0x70 }
  - { offsetInCU: 0x13E32, offset: 0x1EEF0, size: 0x8, addend: 0x0, symName: __ZNSt3__113__unwrap_iterB8ue170006INS_11__wrap_iterIPP7DeclASTEENS_18__unwrap_iter_implIS5_Lb1EEELi0EEEDTclsrT0_8__unwrapclsr3stdE7declvalIT_EEEES9_, symObjAddr: 0xD688, symBinAddr: 0x100014D1C, symSize: 0x2C }
  - { offsetInCU: 0x13EC9, offset: 0x1EF87, size: 0x8, addend: 0x0, symName: __ZNSt3__112__to_addressB8ue170006INS_11__wrap_iterIPP7DeclASTEEvEEu7__decayIDTclsr19__to_address_helperIT_EE6__callclsr3stdE7declvalIRKS6_EEEEES8_, symObjAddr: 0xD6DC, symBinAddr: 0x100014D70, symSize: 0x24 }
  - { offsetInCU: 0x13FA5, offset: 0x1F063, size: 0x8, addend: 0x0, symName: __ZNSt3__113move_backwardB8ue170006IPP7DeclASTS3_EET0_T_S5_S4_, symObjAddr: 0xD790, symBinAddr: 0x100014E24, symSize: 0x40 }
  - { offsetInCU: 0x13FFF, offset: 0x1F0BD, size: 0x8, addend: 0x0, symName: __ZNSt3__115__move_backwardB8ue170006INS_17_ClassicAlgPolicyEPP7DeclASTS4_S4_EENS_4pairIT0_T2_EES6_T1_S7_, symObjAddr: 0xD7F8, symBinAddr: 0x100014E8C, symSize: 0x44 }
  - { offsetInCU: 0x1406B, offset: 0x1F129, size: 0x8, addend: 0x0, symName: __ZNSt3__123__dispatch_copy_or_moveB8ue170006INS_17_ClassicAlgPolicyENS_20__move_backward_loopIS1_EENS_23__move_backward_trivialEPP7DeclASTS7_S7_EENS_4pairIT2_T4_EES9_T3_SA_, symObjAddr: 0xD83C, symBinAddr: 0x100014ED0, symSize: 0x44 }
  - { offsetInCU: 0x140E9, offset: 0x1F1A7, size: 0x8, addend: 0x0, symName: __ZNSt3__121__unwrap_and_dispatchB8ue170006INS_10__overloadINS_20__move_backward_loopINS_17_ClassicAlgPolicyEEENS_23__move_backward_trivialEEEPP7DeclASTS9_S9_Li0EEENS_4pairIT0_T2_EESB_T1_SC_, symObjAddr: 0xD880, symBinAddr: 0x100014F14, symSize: 0xB4 }
  - { offsetInCU: 0x141BF, offset: 0x1F27D, size: 0x8, addend: 0x0, symName: __ZNSt3__128__copy_backward_trivial_implB8ue170006IP7DeclASTS2_EENS_4pairIPT_PT0_EES5_S5_S7_, symObjAddr: 0xD97C, symBinAddr: 0x100015010, symSize: 0x90 }
  - { offsetInCU: 0x14228, offset: 0x1F2E6, size: 0x8, addend: 0x0, symName: __ZNSt3__19make_pairB8ue170006IRPP7DeclASTS4_EENS_4pairINS_18__unwrap_ref_decayIT_E4typeENS6_IT0_E4typeEEEOS7_OSA_, symObjAddr: 0xDA0C, symBinAddr: 0x1000150A0, symSize: 0x38 }
  - { offsetInCU: 0x14277, offset: 0x1F335, size: 0x8, addend: 0x0, symName: __ZNSt3__16__copyB8ue170006INS_17_ClassicAlgPolicyENS_11__wrap_iterIPP7DeclASTEES6_S5_EENS_4pairIT0_T2_EES8_T1_S9_, symObjAddr: 0xDAB4, symBinAddr: 0x100015148, symSize: 0x54 }
  - { offsetInCU: 0x142E3, offset: 0x1F3A1, size: 0x8, addend: 0x0, symName: __ZNSt3__123__dispatch_copy_or_moveB8ue170006INS_17_ClassicAlgPolicyENS_11__copy_loopIS1_EENS_14__copy_trivialENS_11__wrap_iterIPP7DeclASTEES9_S8_EENS_4pairIT2_T4_EESB_T3_SC_, symObjAddr: 0xDB08, symBinAddr: 0x10001519C, symSize: 0x54 }
  - { offsetInCU: 0x14361, offset: 0x1F41F, size: 0x8, addend: 0x0, symName: __ZNSt3__121__unwrap_and_dispatchB8ue170006INS_10__overloadINS_11__copy_loopINS_17_ClassicAlgPolicyEEENS_14__copy_trivialEEENS_11__wrap_iterIPP7DeclASTEESB_SA_Li0EEENS_4pairIT0_T2_EESD_T1_SE_, symObjAddr: 0xDB5C, symBinAddr: 0x1000151F0, symSize: 0xCC }
  - { offsetInCU: 0x143F1, offset: 0x1F4AF, size: 0x8, addend: 0x0, symName: __ZNSt3__19make_pairB8ue170006INS_11__wrap_iterIPP7DeclASTEES4_EENS_4pairINS_18__unwrap_ref_decayIT_E4typeENS7_IT0_E4typeEEEOS8_OSB_, symObjAddr: 0xDC28, symBinAddr: 0x1000152BC, symSize: 0x38 }
  - { offsetInCU: 0x14440, offset: 0x1F4FE, size: 0x8, addend: 0x0, symName: __ZNSt3__114__rewrap_rangeB8ue170006INS_11__wrap_iterIPP7DeclASTEES4_EET_S6_T0_, symObjAddr: 0xDC60, symBinAddr: 0x1000152F4, symSize: 0x3C }
  - { offsetInCU: 0x14561, offset: 0x1F61F, size: 0x8, addend: 0x0, symName: __ZNSt3__113__rewrap_iterB8ue170006INS_11__wrap_iterIPP7DeclASTEES4_NS_18__unwrap_iter_implIS5_Lb1EEEEET_S8_T0_, symObjAddr: 0xDD0C, symBinAddr: 0x1000153A0, symSize: 0x4C }
  - { offsetInCU: 0x145B6, offset: 0x1F674, size: 0x8, addend: 0x0, symName: __ZNSt3__142__uninitialized_allocator_move_if_noexceptB8ue170006INS_9allocatorIP7DeclASTEENS_16reverse_iteratorIPS3_EES7_S3_vEET1_RT_T0_SB_S8_, symObjAddr: 0xE17C, symBinAddr: 0x100015810, symSize: 0x78 }
  - { offsetInCU: 0x14634, offset: 0x1F6F2, size: 0x8, addend: 0x0, symName: __ZNSt3__142__uninitialized_allocator_move_if_noexceptB8ue170006INS_9allocatorIP7DeclASTEEPS3_S5_S3_vEET1_RT_T0_S9_S6_, symObjAddr: 0xE240, symBinAddr: 0x1000158D4, symSize: 0x38 }
  - { offsetInCU: 0x146B1, offset: 0x1F76F, size: 0x8, addend: 0x0, symName: __ZNSt3__14swapB8ue170006IPP7DeclASTEENS_9enable_ifIXaasr21is_move_constructibleIT_EE5valuesr18is_move_assignableIS5_EE5valueEvE4typeERS5_S8_, symObjAddr: 0xE278, symBinAddr: 0x10001590C, symSize: 0x3C }
  - { offsetInCU: 0x14703, offset: 0x1F7C1, size: 0x8, addend: 0x0, symName: __ZNSt3__14moveB8ue170006INS_16reverse_iteratorIPP7DeclASTEES5_EET0_T_S7_S6_, symObjAddr: 0xE2B4, symBinAddr: 0x100015948, symSize: 0x78 }
  - { offsetInCU: 0x1475D, offset: 0x1F81B, size: 0x8, addend: 0x0, symName: __ZNSt3__16__moveB8ue170006INS_17_ClassicAlgPolicyENS_16reverse_iteratorIPP7DeclASTEES6_S6_EENS_4pairIT0_T2_EES8_T1_S9_, symObjAddr: 0xE32C, symBinAddr: 0x1000159C0, symSize: 0x64 }
  - { offsetInCU: 0x147C9, offset: 0x1F887, size: 0x8, addend: 0x0, symName: __ZNSt3__123__dispatch_copy_or_moveB8ue170006INS_17_ClassicAlgPolicyENS_11__move_loopIS1_EENS_14__move_trivialENS_16reverse_iteratorIPP7DeclASTEES9_S9_EENS_4pairIT2_T4_EESB_T3_SC_, symObjAddr: 0xE390, symBinAddr: 0x100015A24, symSize: 0x64 }
  - { offsetInCU: 0x14847, offset: 0x1F905, size: 0x8, addend: 0x0, symName: __ZNSt3__121__unwrap_and_dispatchB8ue170006INS_10__overloadINS_11__move_loopINS_17_ClassicAlgPolicyEEENS_14__move_trivialEEENS_16reverse_iteratorIPP7DeclASTEESB_SB_Li0EEENS_4pairIT0_T2_EESD_T1_SE_, symObjAddr: 0xE3F4, symBinAddr: 0x100015A88, symSize: 0x12C }
  - { offsetInCU: 0x148D9, offset: 0x1F997, size: 0x8, addend: 0x0, symName: __ZNSt3__114__unwrap_rangeB8ue170006INS_16reverse_iteratorIPP7DeclASTEES5_EENS_4pairIT0_S7_EET_S9_, symObjAddr: 0xE520, symBinAddr: 0x100015BB4, symSize: 0x84 }
  - { offsetInCU: 0x14B90, offset: 0x1FC4E, size: 0x8, addend: 0x0, symName: __ZNSt3__113__unwrap_iterB8ue170006INS_16reverse_iteratorIPP7DeclASTEENS_18__unwrap_iter_implIS5_Lb0EEELi0EEEDTclsrT0_8__unwrapclsr3stdE7declvalIT_EEEES9_, symObjAddr: 0xE644, symBinAddr: 0x100015CD8, symSize: 0x44 }
  - { offsetInCU: 0x14BD4, offset: 0x1FC92, size: 0x8, addend: 0x0, symName: __ZNSt3__19make_pairB8ue170006INS_16reverse_iteratorIPP7DeclASTEES5_EENS_4pairINS_18__unwrap_ref_decayIT_E4typeENS7_IT0_E4typeEEEOS8_OSB_, symObjAddr: 0xE688, symBinAddr: 0x100015D1C, symSize: 0x38 }
  - { offsetInCU: 0x14C23, offset: 0x1FCE1, size: 0x8, addend: 0x0, symName: __ZNSt3__114__rewrap_rangeB8ue170006INS_16reverse_iteratorIPP7DeclASTEES5_EET_S6_T0_, symObjAddr: 0xE6C0, symBinAddr: 0x100015D54, symSize: 0x5C }
  - { offsetInCU: 0x14C6F, offset: 0x1FD2D, size: 0x8, addend: 0x0, symName: __ZNSt3__113__rewrap_iterB8ue170006INS_16reverse_iteratorIPP7DeclASTEES5_NS_18__unwrap_iter_implIS5_Lb0EEEEET_S8_T0_, symObjAddr: 0xE71C, symBinAddr: 0x100015DB0, symSize: 0x74 }
  - { offsetInCU: 0x14CC4, offset: 0x1FD82, size: 0x8, addend: 0x0, symName: __ZNSt3__1neB8ue170006IPP7DeclASTS3_EEbRKNS_16reverse_iteratorIT_EERKNS4_IT0_EE, symObjAddr: 0xE790, symBinAddr: 0x100015E24, symSize: 0x48 }
  - { offsetInCU: 0x14EC2, offset: 0x1FF80, size: 0x8, addend: 0x0, symName: __ZNSt3__14moveB8ue170006IPP7DeclASTS3_EET0_T_S5_S4_, symObjAddr: 0xE934, symBinAddr: 0x100015FC8, symSize: 0x40 }
  - { offsetInCU: 0x14F1C, offset: 0x1FFDA, size: 0x8, addend: 0x0, symName: __ZNSt3__16__moveB8ue170006INS_17_ClassicAlgPolicyEPP7DeclASTS4_S4_EENS_4pairIT0_T2_EES6_T1_S7_, symObjAddr: 0xE974, symBinAddr: 0x100016008, symSize: 0x44 }
  - { offsetInCU: 0x14F88, offset: 0x20046, size: 0x8, addend: 0x0, symName: __ZNSt3__123__dispatch_copy_or_moveB8ue170006INS_17_ClassicAlgPolicyENS_11__move_loopIS1_EENS_14__move_trivialEPP7DeclASTS7_S7_EENS_4pairIT2_T4_EES9_T3_SA_, symObjAddr: 0xE9B8, symBinAddr: 0x10001604C, symSize: 0x44 }
  - { offsetInCU: 0x15006, offset: 0x200C4, size: 0x8, addend: 0x0, symName: __ZNSt3__121__unwrap_and_dispatchB8ue170006INS_10__overloadINS_11__move_loopINS_17_ClassicAlgPolicyEEENS_14__move_trivialEEEPP7DeclASTS9_S9_Li0EEENS_4pairIT0_T2_EESB_T1_SC_, symObjAddr: 0xE9FC, symBinAddr: 0x100016090, symSize: 0xB4 }
  - { offsetInCU: 0x150DC, offset: 0x2019A, size: 0x8, addend: 0x0, symName: __ZNSt3__110__distanceB8ue170006INS_11__wrap_iterIPP7DeclASTEEEENS_15iterator_traitsIT_E15difference_typeES7_S7_NS_26random_access_iterator_tagE, symObjAddr: 0xED38, symBinAddr: 0x1000163CC, symSize: 0x30 }
  - { offsetInCU: 0x15129, offset: 0x201E7, size: 0x8, addend: 0x0, symName: __ZNSt3__1miB8ue170006IPP7DeclASTS3_EEDTmicldtfp_4baseEcldtfp0_4baseEERKNS_11__wrap_iterIT_EERKNS5_IT0_EE, symObjAddr: 0xED68, symBinAddr: 0x1000163FC, symSize: 0x48 }
  - { offsetInCU: 0x15175, offset: 0x20233, size: 0x8, addend: 0x0, symName: __ZNSt3__112__to_addressB8ue170006IP6VarASTEEPT_S4_, symObjAddr: 0xF4C4, symBinAddr: 0x100016B58, symSize: 0x14 }
  - { offsetInCU: 0x151AA, offset: 0x20268, size: 0x8, addend: 0x0, symName: __ZNSt3__119__allocate_at_leastB8ue170006INS_9allocatorIP6VarASTEEEENS_19__allocation_resultINS_16allocator_traitsIT_E7pointerEEERS7_m, symObjAddr: 0xFAE8, symBinAddr: 0x10001717C, symSize: 0x40 }
  - { offsetInCU: 0x151ED, offset: 0x202AB, size: 0x8, addend: 0x0, symName: __ZNSt3__142__uninitialized_allocator_move_if_noexceptB8ue170006INS_9allocatorIP6VarASTEENS_16reverse_iteratorIPS3_EES7_S3_vEET1_RT_T0_SB_S8_, symObjAddr: 0xFD70, symBinAddr: 0x100017404, symSize: 0x78 }
  - { offsetInCU: 0x1526B, offset: 0x20329, size: 0x8, addend: 0x0, symName: __ZNSt3__14swapB8ue170006IPP6VarASTEENS_9enable_ifIXaasr21is_move_constructibleIT_EE5valuesr18is_move_assignableIS5_EE5valueEvE4typeERS5_S8_, symObjAddr: 0xFE34, symBinAddr: 0x1000174C8, symSize: 0x3C }
  - { offsetInCU: 0x152BD, offset: 0x2037B, size: 0x8, addend: 0x0, symName: __ZNSt3__14moveB8ue170006INS_16reverse_iteratorIPP6VarASTEES5_EET0_T_S7_S6_, symObjAddr: 0xFF64, symBinAddr: 0x1000175F8, symSize: 0x78 }
  - { offsetInCU: 0x15317, offset: 0x203D5, size: 0x8, addend: 0x0, symName: __ZNSt3__16__moveB8ue170006INS_17_ClassicAlgPolicyENS_16reverse_iteratorIPP6VarASTEES6_S6_EENS_4pairIT0_T2_EES8_T1_S9_, symObjAddr: 0xFFDC, symBinAddr: 0x100017670, symSize: 0x64 }
  - { offsetInCU: 0x15383, offset: 0x20441, size: 0x8, addend: 0x0, symName: __ZNSt3__123__dispatch_copy_or_moveB8ue170006INS_17_ClassicAlgPolicyENS_11__move_loopIS1_EENS_14__move_trivialENS_16reverse_iteratorIPP6VarASTEES9_S9_EENS_4pairIT2_T4_EESB_T3_SC_, symObjAddr: 0x10040, symBinAddr: 0x1000176D4, symSize: 0x64 }
  - { offsetInCU: 0x15401, offset: 0x204BF, size: 0x8, addend: 0x0, symName: __ZNSt3__121__unwrap_and_dispatchB8ue170006INS_10__overloadINS_11__move_loopINS_17_ClassicAlgPolicyEEENS_14__move_trivialEEENS_16reverse_iteratorIPP6VarASTEESB_SB_Li0EEENS_4pairIT0_T2_EESD_T1_SE_, symObjAddr: 0x100A4, symBinAddr: 0x100017738, symSize: 0x12C }
  - { offsetInCU: 0x15493, offset: 0x20551, size: 0x8, addend: 0x0, symName: __ZNSt3__114__unwrap_rangeB8ue170006INS_16reverse_iteratorIPP6VarASTEES5_EENS_4pairIT0_S7_EET_S9_, symObjAddr: 0x101D0, symBinAddr: 0x100017864, symSize: 0x84 }
  - { offsetInCU: 0x155B4, offset: 0x20672, size: 0x8, addend: 0x0, symName: __ZNSt3__113__unwrap_iterB8ue170006INS_16reverse_iteratorIPP6VarASTEENS_18__unwrap_iter_implIS5_Lb0EEELi0EEEDTclsrT0_8__unwrapclsr3stdE7declvalIT_EEEES9_, symObjAddr: 0x102F4, symBinAddr: 0x100017988, symSize: 0x44 }
  - { offsetInCU: 0x155F8, offset: 0x206B6, size: 0x8, addend: 0x0, symName: __ZNSt3__19make_pairB8ue170006INS_16reverse_iteratorIPP6VarASTEES5_EENS_4pairINS_18__unwrap_ref_decayIT_E4typeENS7_IT0_E4typeEEEOS8_OSB_, symObjAddr: 0x10338, symBinAddr: 0x1000179CC, symSize: 0x38 }
  - { offsetInCU: 0x15647, offset: 0x20705, size: 0x8, addend: 0x0, symName: __ZNSt3__114__rewrap_rangeB8ue170006INS_16reverse_iteratorIPP6VarASTEES5_EET_S6_T0_, symObjAddr: 0x10370, symBinAddr: 0x100017A04, symSize: 0x5C }
  - { offsetInCU: 0x15693, offset: 0x20751, size: 0x8, addend: 0x0, symName: __ZNSt3__113__rewrap_iterB8ue170006INS_16reverse_iteratorIPP6VarASTEES5_NS_18__unwrap_iter_implIS5_Lb0EEEEET_S8_T0_, symObjAddr: 0x103CC, symBinAddr: 0x100017A60, symSize: 0x74 }
  - { offsetInCU: 0x156E8, offset: 0x207A6, size: 0x8, addend: 0x0, symName: __ZNSt3__1neB8ue170006IPP6VarASTS3_EEbRKNS_16reverse_iteratorIT_EERKNS4_IT0_EE, symObjAddr: 0x10440, symBinAddr: 0x100017AD4, symSize: 0x48 }
  - { offsetInCU: 0x157A1, offset: 0x2085F, size: 0x8, addend: 0x0, symName: __ZNSt3__142__uninitialized_allocator_move_if_noexceptB8ue170006INS_9allocatorIP11OperatorASTEENS_16reverse_iteratorIPS3_EES7_S3_vEET1_RT_T0_SB_S8_, symObjAddr: 0x11008, symBinAddr: 0x10001869C, symSize: 0x78 }
  - { offsetInCU: 0x1581F, offset: 0x208DD, size: 0x8, addend: 0x0, symName: __ZNSt3__14swapB8ue170006IPP11OperatorASTEENS_9enable_ifIXaasr21is_move_constructibleIT_EE5valuesr18is_move_assignableIS5_EE5valueEvE4typeERS5_S8_, symObjAddr: 0x110CC, symBinAddr: 0x100018760, symSize: 0x3C }
  - { offsetInCU: 0x15871, offset: 0x2092F, size: 0x8, addend: 0x0, symName: __ZNSt3__14moveB8ue170006INS_16reverse_iteratorIPP11OperatorASTEES5_EET0_T_S7_S6_, symObjAddr: 0x11108, symBinAddr: 0x10001879C, symSize: 0x78 }
  - { offsetInCU: 0x158CB, offset: 0x20989, size: 0x8, addend: 0x0, symName: __ZNSt3__16__moveB8ue170006INS_17_ClassicAlgPolicyENS_16reverse_iteratorIPP11OperatorASTEES6_S6_EENS_4pairIT0_T2_EES8_T1_S9_, symObjAddr: 0x11180, symBinAddr: 0x100018814, symSize: 0x64 }
  - { offsetInCU: 0x15937, offset: 0x209F5, size: 0x8, addend: 0x0, symName: __ZNSt3__123__dispatch_copy_or_moveB8ue170006INS_17_ClassicAlgPolicyENS_11__move_loopIS1_EENS_14__move_trivialENS_16reverse_iteratorIPP11OperatorASTEES9_S9_EENS_4pairIT2_T4_EESB_T3_SC_, symObjAddr: 0x111E4, symBinAddr: 0x100018878, symSize: 0x64 }
  - { offsetInCU: 0x159B5, offset: 0x20A73, size: 0x8, addend: 0x0, symName: __ZNSt3__121__unwrap_and_dispatchB8ue170006INS_10__overloadINS_11__move_loopINS_17_ClassicAlgPolicyEEENS_14__move_trivialEEENS_16reverse_iteratorIPP11OperatorASTEESB_SB_Li0EEENS_4pairIT0_T2_EESD_T1_SE_, symObjAddr: 0x11248, symBinAddr: 0x1000188DC, symSize: 0x12C }
  - { offsetInCU: 0x15A47, offset: 0x20B05, size: 0x8, addend: 0x0, symName: __ZNSt3__114__unwrap_rangeB8ue170006INS_16reverse_iteratorIPP11OperatorASTEES5_EENS_4pairIT0_S7_EET_S9_, symObjAddr: 0x11374, symBinAddr: 0x100018A08, symSize: 0x84 }
  - { offsetInCU: 0x15B68, offset: 0x20C26, size: 0x8, addend: 0x0, symName: __ZNSt3__113__unwrap_iterB8ue170006INS_16reverse_iteratorIPP11OperatorASTEENS_18__unwrap_iter_implIS5_Lb0EEELi0EEEDTclsrT0_8__unwrapclsr3stdE7declvalIT_EEEES9_, symObjAddr: 0x11498, symBinAddr: 0x100018B2C, symSize: 0x44 }
  - { offsetInCU: 0x15BAC, offset: 0x20C6A, size: 0x8, addend: 0x0, symName: __ZNSt3__19make_pairB8ue170006INS_16reverse_iteratorIPP11OperatorASTEES5_EENS_4pairINS_18__unwrap_ref_decayIT_E4typeENS7_IT0_E4typeEEEOS8_OSB_, symObjAddr: 0x114DC, symBinAddr: 0x100018B70, symSize: 0x38 }
  - { offsetInCU: 0x15BFB, offset: 0x20CB9, size: 0x8, addend: 0x0, symName: __ZNSt3__114__rewrap_rangeB8ue170006INS_16reverse_iteratorIPP11OperatorASTEES5_EET_S6_T0_, symObjAddr: 0x11514, symBinAddr: 0x100018BA8, symSize: 0x5C }
  - { offsetInCU: 0x15C47, offset: 0x20D05, size: 0x8, addend: 0x0, symName: __ZNSt3__113__rewrap_iterB8ue170006INS_16reverse_iteratorIPP11OperatorASTEES5_NS_18__unwrap_iter_implIS5_Lb0EEEEET_S8_T0_, symObjAddr: 0x11570, symBinAddr: 0x100018C04, symSize: 0x74 }
  - { offsetInCU: 0x15C9C, offset: 0x20D5A, size: 0x8, addend: 0x0, symName: __ZNSt3__1neB8ue170006IPP11OperatorASTS3_EEbRKNS_16reverse_iteratorIT_EERKNS4_IT0_EE, symObjAddr: 0x115E4, symBinAddr: 0x100018C78, symSize: 0x48 }
  - { offsetInCU: 0x15D55, offset: 0x20E13, size: 0x8, addend: 0x0, symName: __ZNSt3__119__allocate_at_leastB8ue170006INS_9allocatorIP7TermASTEEEENS_19__allocation_resultINS_16allocator_traitsIT_E7pointerEEERS7_m, symObjAddr: 0x12324, symBinAddr: 0x1000199B8, symSize: 0x40 }
  - { offsetInCU: 0x15D98, offset: 0x20E56, size: 0x8, addend: 0x0, symName: __ZNSt3__142__uninitialized_allocator_move_if_noexceptB8ue170006INS_9allocatorIP7TermASTEENS_16reverse_iteratorIPS3_EES7_S3_vEET1_RT_T0_SB_S8_, symObjAddr: 0x124D8, symBinAddr: 0x100019B6C, symSize: 0x78 }
  - { offsetInCU: 0x15E16, offset: 0x20ED4, size: 0x8, addend: 0x0, symName: __ZNSt3__14swapB8ue170006IPP7TermASTEENS_9enable_ifIXaasr21is_move_constructibleIT_EE5valuesr18is_move_assignableIS5_EE5valueEvE4typeERS5_S8_, symObjAddr: 0x1259C, symBinAddr: 0x100019C30, symSize: 0x3C }
  - { offsetInCU: 0x15E68, offset: 0x20F26, size: 0x8, addend: 0x0, symName: __ZNSt3__14moveB8ue170006INS_16reverse_iteratorIPP7TermASTEES5_EET0_T_S7_S6_, symObjAddr: 0x12684, symBinAddr: 0x100019D18, symSize: 0x78 }
  - { offsetInCU: 0x15EC2, offset: 0x20F80, size: 0x8, addend: 0x0, symName: __ZNSt3__16__moveB8ue170006INS_17_ClassicAlgPolicyENS_16reverse_iteratorIPP7TermASTEES6_S6_EENS_4pairIT0_T2_EES8_T1_S9_, symObjAddr: 0x126FC, symBinAddr: 0x100019D90, symSize: 0x64 }
  - { offsetInCU: 0x15F2E, offset: 0x20FEC, size: 0x8, addend: 0x0, symName: __ZNSt3__123__dispatch_copy_or_moveB8ue170006INS_17_ClassicAlgPolicyENS_11__move_loopIS1_EENS_14__move_trivialENS_16reverse_iteratorIPP7TermASTEES9_S9_EENS_4pairIT2_T4_EESB_T3_SC_, symObjAddr: 0x12760, symBinAddr: 0x100019DF4, symSize: 0x64 }
  - { offsetInCU: 0x15FAC, offset: 0x2106A, size: 0x8, addend: 0x0, symName: __ZNSt3__121__unwrap_and_dispatchB8ue170006INS_10__overloadINS_11__move_loopINS_17_ClassicAlgPolicyEEENS_14__move_trivialEEENS_16reverse_iteratorIPP7TermASTEESB_SB_Li0EEENS_4pairIT0_T2_EESD_T1_SE_, symObjAddr: 0x127C4, symBinAddr: 0x100019E58, symSize: 0x12C }
  - { offsetInCU: 0x1603E, offset: 0x210FC, size: 0x8, addend: 0x0, symName: __ZNSt3__114__unwrap_rangeB8ue170006INS_16reverse_iteratorIPP7TermASTEES5_EENS_4pairIT0_S7_EET_S9_, symObjAddr: 0x128F0, symBinAddr: 0x100019F84, symSize: 0x84 }
  - { offsetInCU: 0x1615F, offset: 0x2121D, size: 0x8, addend: 0x0, symName: __ZNSt3__113__unwrap_iterB8ue170006INS_16reverse_iteratorIPP7TermASTEENS_18__unwrap_iter_implIS5_Lb0EEELi0EEEDTclsrT0_8__unwrapclsr3stdE7declvalIT_EEEES9_, symObjAddr: 0x12A14, symBinAddr: 0x10001A0A8, symSize: 0x44 }
  - { offsetInCU: 0x161A3, offset: 0x21261, size: 0x8, addend: 0x0, symName: __ZNSt3__19make_pairB8ue170006INS_16reverse_iteratorIPP7TermASTEES5_EENS_4pairINS_18__unwrap_ref_decayIT_E4typeENS7_IT0_E4typeEEEOS8_OSB_, symObjAddr: 0x12A58, symBinAddr: 0x10001A0EC, symSize: 0x38 }
  - { offsetInCU: 0x161F2, offset: 0x212B0, size: 0x8, addend: 0x0, symName: __ZNSt3__114__rewrap_rangeB8ue170006INS_16reverse_iteratorIPP7TermASTEES5_EET_S6_T0_, symObjAddr: 0x12A90, symBinAddr: 0x10001A124, symSize: 0x5C }
  - { offsetInCU: 0x1623E, offset: 0x212FC, size: 0x8, addend: 0x0, symName: __ZNSt3__113__rewrap_iterB8ue170006INS_16reverse_iteratorIPP7TermASTEES5_NS_18__unwrap_iter_implIS5_Lb0EEEEET_S8_T0_, symObjAddr: 0x12AEC, symBinAddr: 0x10001A180, symSize: 0x74 }
  - { offsetInCU: 0x16293, offset: 0x21351, size: 0x8, addend: 0x0, symName: __ZNSt3__1neB8ue170006IPP7TermASTS3_EEbRKNS_16reverse_iteratorIT_EERKNS4_IT0_EE, symObjAddr: 0x12B60, symBinAddr: 0x10001A1F4, symSize: 0x48 }
  - { offsetInCU: 0x1634C, offset: 0x2140A, size: 0x8, addend: 0x0, symName: __ZNSt3__142__uninitialized_allocator_move_if_noexceptB8ue170006INS_9allocatorIcEENS_16reverse_iteratorIPcEES5_cvEET1_RT_T0_S9_S6_, symObjAddr: 0x137EC, symBinAddr: 0x10001AD9C, symSize: 0x78 }
  - { offsetInCU: 0x163CA, offset: 0x21488, size: 0x8, addend: 0x0, symName: __ZNSt3__14swapB8ue170006IPcEENS_9enable_ifIXaasr21is_move_constructibleIT_EE5valuesr18is_move_assignableIS3_EE5valueEvE4typeERS3_S6_, symObjAddr: 0x138B0, symBinAddr: 0x10001AE60, symSize: 0x3C }
  - { offsetInCU: 0x1641C, offset: 0x214DA, size: 0x8, addend: 0x0, symName: __ZNSt3__14moveB8ue170006INS_16reverse_iteratorIPcEES3_EET0_T_S5_S4_, symObjAddr: 0x13998, symBinAddr: 0x10001AF48, symSize: 0x78 }
  - { offsetInCU: 0x16476, offset: 0x21534, size: 0x8, addend: 0x0, symName: __ZNSt3__16__moveB8ue170006INS_17_ClassicAlgPolicyENS_16reverse_iteratorIPcEES4_S4_EENS_4pairIT0_T2_EES6_T1_S7_, symObjAddr: 0x13A10, symBinAddr: 0x10001AFC0, symSize: 0x64 }
  - { offsetInCU: 0x164E2, offset: 0x215A0, size: 0x8, addend: 0x0, symName: __ZNSt3__123__dispatch_copy_or_moveB8ue170006INS_17_ClassicAlgPolicyENS_11__move_loopIS1_EENS_14__move_trivialENS_16reverse_iteratorIPcEES7_S7_EENS_4pairIT2_T4_EES9_T3_SA_, symObjAddr: 0x13A74, symBinAddr: 0x10001B024, symSize: 0x64 }
  - { offsetInCU: 0x16560, offset: 0x2161E, size: 0x8, addend: 0x0, symName: __ZNSt3__121__unwrap_and_dispatchB8ue170006INS_10__overloadINS_11__move_loopINS_17_ClassicAlgPolicyEEENS_14__move_trivialEEENS_16reverse_iteratorIPcEES9_S9_Li0EEENS_4pairIT0_T2_EESB_T1_SC_, symObjAddr: 0x13AD8, symBinAddr: 0x10001B088, symSize: 0x12C }
  - { offsetInCU: 0x165F2, offset: 0x216B0, size: 0x8, addend: 0x0, symName: __ZNSt3__114__unwrap_rangeB8ue170006INS_16reverse_iteratorIPcEES3_EENS_4pairIT0_S5_EET_S7_, symObjAddr: 0x13C04, symBinAddr: 0x10001B1B4, symSize: 0x84 }
  - { offsetInCU: 0x16713, offset: 0x217D1, size: 0x8, addend: 0x0, symName: __ZNSt3__113__unwrap_iterB8ue170006INS_16reverse_iteratorIPcEENS_18__unwrap_iter_implIS3_Lb0EEELi0EEEDTclsrT0_8__unwrapclsr3stdE7declvalIT_EEEES7_, symObjAddr: 0x13D28, symBinAddr: 0x10001B2D8, symSize: 0x44 }
  - { offsetInCU: 0x16757, offset: 0x21815, size: 0x8, addend: 0x0, symName: __ZNSt3__19make_pairB8ue170006INS_16reverse_iteratorIPcEES3_EENS_4pairINS_18__unwrap_ref_decayIT_E4typeENS5_IT0_E4typeEEEOS6_OS9_, symObjAddr: 0x13D6C, symBinAddr: 0x10001B31C, symSize: 0x38 }
  - { offsetInCU: 0x167A6, offset: 0x21864, size: 0x8, addend: 0x0, symName: __ZNSt3__114__rewrap_rangeB8ue170006INS_16reverse_iteratorIPcEES3_EET_S4_T0_, symObjAddr: 0x13DA4, symBinAddr: 0x10001B354, symSize: 0x5C }
  - { offsetInCU: 0x167F2, offset: 0x218B0, size: 0x8, addend: 0x0, symName: __ZNSt3__113__rewrap_iterB8ue170006INS_16reverse_iteratorIPcEES3_NS_18__unwrap_iter_implIS3_Lb0EEEEET_S6_T0_, symObjAddr: 0x13E00, symBinAddr: 0x10001B3B0, symSize: 0x74 }
  - { offsetInCU: 0x16847, offset: 0x21905, size: 0x8, addend: 0x0, symName: __ZNSt3__1neB8ue170006IPcS1_EEbRKNS_16reverse_iteratorIT_EERKNS2_IT0_EE, symObjAddr: 0x13E74, symBinAddr: 0x10001B424, symSize: 0x48 }
  - { offsetInCU: 0x16900, offset: 0x219BE, size: 0x8, addend: 0x0, symName: __ZNSt3__119__allocate_at_leastB8ue170006INS_9allocatorIP9FactorASTEEEENS_19__allocation_resultINS_16allocator_traitsIT_E7pointerEEERS7_m, symObjAddr: 0x14944, symBinAddr: 0x10001BEF4, symSize: 0x40 }
  - { offsetInCU: 0x16943, offset: 0x21A01, size: 0x8, addend: 0x0, symName: __ZNSt3__142__uninitialized_allocator_move_if_noexceptB8ue170006INS_9allocatorIP9FactorASTEENS_16reverse_iteratorIPS3_EES7_S3_vEET1_RT_T0_SB_S8_, symObjAddr: 0x14AF8, symBinAddr: 0x10001C0A8, symSize: 0x78 }
  - { offsetInCU: 0x169C1, offset: 0x21A7F, size: 0x8, addend: 0x0, symName: __ZNSt3__14swapB8ue170006IPP9FactorASTEENS_9enable_ifIXaasr21is_move_constructibleIT_EE5valuesr18is_move_assignableIS5_EE5valueEvE4typeERS5_S8_, symObjAddr: 0x14BBC, symBinAddr: 0x10001C16C, symSize: 0x3C }
  - { offsetInCU: 0x16A13, offset: 0x21AD1, size: 0x8, addend: 0x0, symName: __ZNSt3__14moveB8ue170006INS_16reverse_iteratorIPP9FactorASTEES5_EET0_T_S7_S6_, symObjAddr: 0x14CA4, symBinAddr: 0x10001C254, symSize: 0x78 }
  - { offsetInCU: 0x16A6D, offset: 0x21B2B, size: 0x8, addend: 0x0, symName: __ZNSt3__16__moveB8ue170006INS_17_ClassicAlgPolicyENS_16reverse_iteratorIPP9FactorASTEES6_S6_EENS_4pairIT0_T2_EES8_T1_S9_, symObjAddr: 0x14D1C, symBinAddr: 0x10001C2CC, symSize: 0x64 }
  - { offsetInCU: 0x16AD9, offset: 0x21B97, size: 0x8, addend: 0x0, symName: __ZNSt3__123__dispatch_copy_or_moveB8ue170006INS_17_ClassicAlgPolicyENS_11__move_loopIS1_EENS_14__move_trivialENS_16reverse_iteratorIPP9FactorASTEES9_S9_EENS_4pairIT2_T4_EESB_T3_SC_, symObjAddr: 0x14D80, symBinAddr: 0x10001C330, symSize: 0x64 }
  - { offsetInCU: 0x16B57, offset: 0x21C15, size: 0x8, addend: 0x0, symName: __ZNSt3__121__unwrap_and_dispatchB8ue170006INS_10__overloadINS_11__move_loopINS_17_ClassicAlgPolicyEEENS_14__move_trivialEEENS_16reverse_iteratorIPP9FactorASTEESB_SB_Li0EEENS_4pairIT0_T2_EESD_T1_SE_, symObjAddr: 0x14DE4, symBinAddr: 0x10001C394, symSize: 0x12C }
  - { offsetInCU: 0x16BE9, offset: 0x21CA7, size: 0x8, addend: 0x0, symName: __ZNSt3__114__unwrap_rangeB8ue170006INS_16reverse_iteratorIPP9FactorASTEES5_EENS_4pairIT0_S7_EET_S9_, symObjAddr: 0x14F10, symBinAddr: 0x10001C4C0, symSize: 0x84 }
  - { offsetInCU: 0x16D0A, offset: 0x21DC8, size: 0x8, addend: 0x0, symName: __ZNSt3__113__unwrap_iterB8ue170006INS_16reverse_iteratorIPP9FactorASTEENS_18__unwrap_iter_implIS5_Lb0EEELi0EEEDTclsrT0_8__unwrapclsr3stdE7declvalIT_EEEES9_, symObjAddr: 0x15034, symBinAddr: 0x10001C5E4, symSize: 0x44 }
  - { offsetInCU: 0x16D4E, offset: 0x21E0C, size: 0x8, addend: 0x0, symName: __ZNSt3__19make_pairB8ue170006INS_16reverse_iteratorIPP9FactorASTEES5_EENS_4pairINS_18__unwrap_ref_decayIT_E4typeENS7_IT0_E4typeEEEOS8_OSB_, symObjAddr: 0x15078, symBinAddr: 0x10001C628, symSize: 0x38 }
  - { offsetInCU: 0x16D9D, offset: 0x21E5B, size: 0x8, addend: 0x0, symName: __ZNSt3__114__rewrap_rangeB8ue170006INS_16reverse_iteratorIPP9FactorASTEES5_EET_S6_T0_, symObjAddr: 0x150B0, symBinAddr: 0x10001C660, symSize: 0x5C }
  - { offsetInCU: 0x16DE9, offset: 0x21EA7, size: 0x8, addend: 0x0, symName: __ZNSt3__113__rewrap_iterB8ue170006INS_16reverse_iteratorIPP9FactorASTEES5_NS_18__unwrap_iter_implIS5_Lb0EEEEET_S8_T0_, symObjAddr: 0x1510C, symBinAddr: 0x10001C6BC, symSize: 0x74 }
  - { offsetInCU: 0x16E3E, offset: 0x21EFC, size: 0x8, addend: 0x0, symName: __ZNSt3__1neB8ue170006IPP9FactorASTS3_EEbRKNS_16reverse_iteratorIT_EERKNS4_IT0_EE, symObjAddr: 0x15180, symBinAddr: 0x10001C730, symSize: 0x48 }
  - { offsetInCU: 0x16EF7, offset: 0x21FB5, size: 0x8, addend: 0x0, symName: __ZNSt3__1neB8ue170006IcNS_11char_traitsIcEENS_9allocatorIcEEEEbRKNS_12basic_stringIT_T0_T1_EESB_, symObjAddr: 0x15690, symBinAddr: 0x10001CC40, symSize: 0x34 }
  - { offsetInCU: 0x16F4F, offset: 0x2200D, size: 0x8, addend: 0x0, symName: __ZNSt3__1lsB8ue170006INS_11char_traitsIcEEEERNS_13basic_ostreamIcT_EES6_c, symObjAddr: 0x156C4, symBinAddr: 0x10001CC74, symSize: 0x34 }
  - { offsetInCU: 0x16F95, offset: 0x22053, size: 0x8, addend: 0x0, symName: __ZNSt3__1eqB8ue170006INS_9allocatorIcEEEEbRKNS_12basic_stringIcNS_11char_traitsIcEET_EES9_, symObjAddr: 0x156F8, symBinAddr: 0x10001CCA8, symSize: 0x148 }
  - { offsetInCU: 0x1888F, offset: 0x2394D, size: 0x8, addend: 0x0, symName: __ZN2yy6parser12yytranslate_Ei, symObjAddr: 0x388, symBinAddr: 0x10000874C, symSize: 0x70 }
  - { offsetInCU: 0x188B3, offset: 0x23971, size: 0x8, addend: 0x0, symName: __ZZN2yy6parser12yytranslate_EiE15translate_table, symObjAddr: 0x16707, symBinAddr: 0x10001EEE4, symSize: 0x0 }
  - { offsetInCU: 0x189AC, offset: 0x23A6A, size: 0x8, addend: 0x0, symName: __ZNSt3__16vectorIN2yy6parser17stack_symbol_typeENS_9allocatorIS3_EEE26__swap_out_circular_bufferERNS_14__split_bufferIS3_RS5_EE, symObjAddr: 0xAFD4, symBinAddr: 0x1000130DC, symSize: 0x110 }
  - { offsetInCU: 0x18A3F, offset: 0x23AFD, size: 0x8, addend: 0x0, symName: __ZNSt3__16vectorIP7DeclASTNS_9allocatorIS2_EEE26__swap_out_circular_bufferERNS_14__split_bufferIS2_RS4_EEPS2_, symObjAddr: 0xD348, symBinAddr: 0x1000149DC, symSize: 0x14C }
  - { offsetInCU: 0x18AB4, offset: 0x23B72, size: 0x8, addend: 0x0, symName: __ZNSt3__16vectorIP7DeclASTNS_9allocatorIS2_EEE26__swap_out_circular_bufferERNS_14__split_bufferIS2_RS4_EE, symObjAddr: 0xF154, symBinAddr: 0x1000167E8, symSize: 0x110 }
  - { offsetInCU: 0x18AF7, offset: 0x23BB5, size: 0x8, addend: 0x0, symName: __ZNSt3__16vectorIP6VarASTNS_9allocatorIS2_EEE26__swap_out_circular_bufferERNS_14__split_bufferIS2_RS4_EE, symObjAddr: 0xF6E8, symBinAddr: 0x100016D7C, symSize: 0x110 }
  - { offsetInCU: 0x18B4E, offset: 0x23C0C, size: 0x8, addend: 0x0, symName: __ZNSt3__16vectorIP11OperatorASTNS_9allocatorIS2_EEE26__swap_out_circular_bufferERNS_14__split_bufferIS2_RS4_EE, symObjAddr: 0x10CA0, symBinAddr: 0x100018334, symSize: 0x110 }
  - { offsetInCU: 0x18BA5, offset: 0x23C63, size: 0x8, addend: 0x0, symName: __ZNSt3__16vectorIP7TermASTNS_9allocatorIS2_EEE26__swap_out_circular_bufferERNS_14__split_bufferIS2_RS4_EE, symObjAddr: 0x11FC4, symBinAddr: 0x100019658, symSize: 0x110 }
  - { offsetInCU: 0x18BFC, offset: 0x23CBA, size: 0x8, addend: 0x0, symName: __ZNSt3__16vectorIcNS_9allocatorIcEEE26__swap_out_circular_bufferERNS_14__split_bufferIcRS2_EE, symObjAddr: 0x132D8, symBinAddr: 0x10001A96C, symSize: 0x110 }
  - { offsetInCU: 0x18C53, offset: 0x23D11, size: 0x8, addend: 0x0, symName: __ZNSt3__16vectorIP9FactorASTNS_9allocatorIS2_EEE26__swap_out_circular_bufferERNS_14__split_bufferIS2_RS4_EE, symObjAddr: 0x145E4, symBinAddr: 0x10001BB94, symSize: 0x110 }
  - { offsetInCU: 0x1AA87, offset: 0x25B45, size: 0x8, addend: 0x0, symName: __ZN2yy6parserC2ERP10ProgramASTR8FooLexer, symObjAddr: 0x0, symBinAddr: 0x1000083C4, symSize: 0x5C }
  - { offsetInCU: 0x1AACF, offset: 0x25B8D, size: 0x8, addend: 0x0, symName: __ZN2yy6parser5stackINS0_17stack_symbol_typeENSt3__16vectorIS2_NS3_9allocatorIS2_EEEEEC1Em, symObjAddr: 0x5C, symBinAddr: 0x100008420, symSize: 0x34 }
  - { offsetInCU: 0x1AB08, offset: 0x25BC6, size: 0x8, addend: 0x0, symName: __ZN2yy6parserC1ERP10ProgramASTR8FooLexer, symObjAddr: 0x90, symBinAddr: 0x100008454, symSize: 0x3C }
  - { offsetInCU: 0x1AB50, offset: 0x25C0E, size: 0x8, addend: 0x0, symName: __ZN2yy6parserD2Ev, symObjAddr: 0xCC, symBinAddr: 0x100008490, symSize: 0x40 }
  - { offsetInCU: 0x1AB7C, offset: 0x25C3A, size: 0x8, addend: 0x0, symName: __ZN2yy6parser5stackINS0_17stack_symbol_typeENSt3__16vectorIS2_NS3_9allocatorIS2_EEEEED1Ev, symObjAddr: 0x10C, symBinAddr: 0x1000084D0, symSize: 0x2C }
  - { offsetInCU: 0x1ABA9, offset: 0x25C67, size: 0x8, addend: 0x0, symName: __ZN2yy6parserD1Ev, symObjAddr: 0x138, symBinAddr: 0x1000084FC, symSize: 0x2C }
  - { offsetInCU: 0x1ABD5, offset: 0x25C93, size: 0x8, addend: 0x0, symName: __ZN2yy6parserD0Ev, symObjAddr: 0x164, symBinAddr: 0x100008528, symSize: 0x30 }
  - { offsetInCU: 0x1AC01, offset: 0x25CBF, size: 0x8, addend: 0x0, symName: __ZN2yy6parser12syntax_errorD2Ev, symObjAddr: 0x194, symBinAddr: 0x100008558, symSize: 0x2C }
  - { offsetInCU: 0x1AC2D, offset: 0x25CEB, size: 0x8, addend: 0x0, symName: __ZN2yy6parser12syntax_errorD1Ev, symObjAddr: 0x1C0, symBinAddr: 0x100008584, symSize: 0x2C }
  - { offsetInCU: 0x1AC59, offset: 0x25D17, size: 0x8, addend: 0x0, symName: __ZN2yy6parser12syntax_errorD0Ev, symObjAddr: 0x1EC, symBinAddr: 0x1000085B0, symSize: 0x30 }
  - { offsetInCU: 0x1AC85, offset: 0x25D43, size: 0x8, addend: 0x0, symName: __ZN2yy6parser7by_kindC2Ev, symObjAddr: 0x21C, symBinAddr: 0x1000085E0, symSize: 0x1C }
  - { offsetInCU: 0x1ACB1, offset: 0x25D6F, size: 0x8, addend: 0x0, symName: __ZN2yy6parser7by_kindC1Ev, symObjAddr: 0x238, symBinAddr: 0x1000085FC, symSize: 0x2C }
  - { offsetInCU: 0x1ACDD, offset: 0x25D9B, size: 0x8, addend: 0x0, symName: __ZN2yy6parser7by_kindC2EOS1_, symObjAddr: 0x264, symBinAddr: 0x100008628, symSize: 0x40 }
  - { offsetInCU: 0x1AD17, offset: 0x25DD5, size: 0x8, addend: 0x0, symName: __ZN2yy6parser7by_kind5clearEv, symObjAddr: 0x2A4, symBinAddr: 0x100008668, symSize: 0x1C }
  - { offsetInCU: 0x1AD3F, offset: 0x25DFD, size: 0x8, addend: 0x0, symName: __ZN2yy6parser7by_kindC1EOS1_, symObjAddr: 0x2C0, symBinAddr: 0x100008684, symSize: 0x34 }
  - { offsetInCU: 0x1AD79, offset: 0x25E37, size: 0x8, addend: 0x0, symName: __ZN2yy6parser7by_kindC2ERKS1_, symObjAddr: 0x2F4, symBinAddr: 0x1000086B8, symSize: 0x24 }
  - { offsetInCU: 0x1ADB3, offset: 0x25E71, size: 0x8, addend: 0x0, symName: __ZN2yy6parser7by_kindC1ERKS1_, symObjAddr: 0x318, symBinAddr: 0x1000086DC, symSize: 0x34 }
  - { offsetInCU: 0x1ADED, offset: 0x25EAB, size: 0x8, addend: 0x0, symName: __ZN2yy6parser7by_kindC2ENS0_5token15token_kind_typeE, symObjAddr: 0x34C, symBinAddr: 0x100008710, symSize: 0x3C }
  - { offsetInCU: 0x1AE27, offset: 0x25EE5, size: 0x8, addend: 0x0, symName: __ZN2yy6parser7by_kindC1ENS0_5token15token_kind_typeE, symObjAddr: 0x3F8, symBinAddr: 0x1000087BC, symSize: 0x34 }
  - { offsetInCU: 0x1AE61, offset: 0x25F1F, size: 0x8, addend: 0x0, symName: __ZN2yy6parser7by_kind4moveERS1_, symObjAddr: 0x42C, symBinAddr: 0x1000087F0, symSize: 0x38 }
  - { offsetInCU: 0x1AE97, offset: 0x25F55, size: 0x8, addend: 0x0, symName: __ZNK2yy6parser7by_kind4kindEv, symObjAddr: 0x464, symBinAddr: 0x100008828, symSize: 0x18 }
  - { offsetInCU: 0x1AEBF, offset: 0x25F7D, size: 0x8, addend: 0x0, symName: __ZNK2yy6parser7by_kind8type_getEv, symObjAddr: 0x47C, symBinAddr: 0x100008840, symSize: 0x24 }
  - { offsetInCU: 0x1AEE8, offset: 0x25FA6, size: 0x8, addend: 0x0, symName: __ZN2yy6parser8by_stateC2Ev, symObjAddr: 0x4A0, symBinAddr: 0x100008864, symSize: 0x18 }
  - { offsetInCU: 0x1AF15, offset: 0x25FD3, size: 0x8, addend: 0x0, symName: __ZN2yy6parser8by_stateC1Ev, symObjAddr: 0x4B8, symBinAddr: 0x10000887C, symSize: 0x2C }
  - { offsetInCU: 0x1AF42, offset: 0x26000, size: 0x8, addend: 0x0, symName: __ZN2yy6parser8by_stateC2ERKS1_, symObjAddr: 0x4E4, symBinAddr: 0x1000088A8, symSize: 0x24 }
  - { offsetInCU: 0x1AF7E, offset: 0x2603C, size: 0x8, addend: 0x0, symName: __ZN2yy6parser8by_stateC1ERKS1_, symObjAddr: 0x508, symBinAddr: 0x1000088CC, symSize: 0x34 }
  - { offsetInCU: 0x1AFBA, offset: 0x26078, size: 0x8, addend: 0x0, symName: __ZN2yy6parser8by_state5clearEv, symObjAddr: 0x53C, symBinAddr: 0x100008900, symSize: 0x18 }
  - { offsetInCU: 0x1AFE3, offset: 0x260A1, size: 0x8, addend: 0x0, symName: __ZN2yy6parser8by_state4moveERS1_, symObjAddr: 0x554, symBinAddr: 0x100008918, symSize: 0x38 }
  - { offsetInCU: 0x1B01B, offset: 0x260D9, size: 0x8, addend: 0x0, symName: __ZN2yy6parser8by_stateC2Ea, symObjAddr: 0x58C, symBinAddr: 0x100008950, symSize: 0x20 }
  - { offsetInCU: 0x1B057, offset: 0x26115, size: 0x8, addend: 0x0, symName: __ZN2yy6parser8by_stateC1Ea, symObjAddr: 0x5AC, symBinAddr: 0x100008970, symSize: 0x34 }
  - { offsetInCU: 0x1B093, offset: 0x26151, size: 0x8, addend: 0x0, symName: __ZNK2yy6parser8by_state4kindEv, symObjAddr: 0x5E0, symBinAddr: 0x1000089A4, symSize: 0x58 }
  - { offsetInCU: 0x1B0BC, offset: 0x2617A, size: 0x8, addend: 0x0, symName: __ZN2yy6parser17stack_symbol_typeC2Ev, symObjAddr: 0x638, symBinAddr: 0x1000089FC, symSize: 0x2C }
  - { offsetInCU: 0x1B0E9, offset: 0x261A7, size: 0x8, addend: 0x0, symName: __ZN2yy6parser12basic_symbolINS0_8by_stateEEC2Ev, symObjAddr: 0x664, symBinAddr: 0x100008A28, symSize: 0x64 }
  - { offsetInCU: 0x1B113, offset: 0x261D1, size: 0x8, addend: 0x0, symName: __ZN2yy6parser17stack_symbol_typeC1Ev, symObjAddr: 0x6C8, symBinAddr: 0x100008A8C, symSize: 0x2C }
  - { offsetInCU: 0x1B140, offset: 0x261FE, size: 0x8, addend: 0x0, symName: __ZN2yy6parser17stack_symbol_typeC2EOS1_, symObjAddr: 0x6F4, symBinAddr: 0x100008AB8, symSize: 0x50 }
  - { offsetInCU: 0x1B17C, offset: 0x2623A, size: 0x8, addend: 0x0, symName: __ZN2yy6parser12basic_symbolINS0_8by_stateEEC2EaONS0_10value_typeEONS_8locationE, symObjAddr: 0x744, symBinAddr: 0x100008B08, symSize: 0x5C }
  - { offsetInCU: 0x1B1D5, offset: 0x26293, size: 0x8, addend: 0x0, symName: __ZN2yy6parser17stack_symbol_typeC1EOS1_, symObjAddr: 0x7A0, symBinAddr: 0x100008B64, symSize: 0x34 }
  - { offsetInCU: 0x1B211, offset: 0x262CF, size: 0x8, addend: 0x0, symName: __ZN2yy6parser17stack_symbol_typeC2EaONS0_11symbol_typeE, symObjAddr: 0x7D4, symBinAddr: 0x100008B98, symSize: 0x54 }
  - { offsetInCU: 0x1B25C, offset: 0x2631A, size: 0x8, addend: 0x0, symName: __ZN2yy6parser17stack_symbol_typeC1EaONS0_11symbol_typeE, symObjAddr: 0x828, symBinAddr: 0x100008BEC, symSize: 0x3C }
  - { offsetInCU: 0x1B2A7, offset: 0x26365, size: 0x8, addend: 0x0, symName: __ZN2yy6parser7yypush_EPKcONS0_17stack_symbol_typeE, symObjAddr: 0x864, symBinAddr: 0x100008C28, symSize: 0x54 }
  - { offsetInCU: 0x1B2EE, offset: 0x263AC, size: 0x8, addend: 0x0, symName: __ZN2yy6parser5stackINS0_17stack_symbol_typeENSt3__16vectorIS2_NS3_9allocatorIS2_EEEEE4pushEOS2_, symObjAddr: 0x8B8, symBinAddr: 0x100008C7C, symSize: 0x80 }
  - { offsetInCU: 0x1B323, offset: 0x263E1, size: 0x8, addend: 0x0, symName: __ZN2yy6parser7yypush_EPKcaONS0_11symbol_typeE, symObjAddr: 0x938, symBinAddr: 0x100008CFC, symSize: 0x88 }
  - { offsetInCU: 0x1B379, offset: 0x26437, size: 0x8, addend: 0x0, symName: __ZN2yy6parser17stack_symbol_typeD1Ev, symObjAddr: 0x9C0, symBinAddr: 0x100008D84, symSize: 0x2C }
  - { offsetInCU: 0x1B3A6, offset: 0x26464, size: 0x8, addend: 0x0, symName: __ZN2yy6parser6yypop_Ei, symObjAddr: 0x9EC, symBinAddr: 0x100008DB0, symSize: 0x30 }
  - { offsetInCU: 0x1B3DE, offset: 0x2649C, size: 0x8, addend: 0x0, symName: __ZN2yy6parser5stackINS0_17stack_symbol_typeENSt3__16vectorIS2_NS3_9allocatorIS2_EEEEE3popEl, symObjAddr: 0xA1C, symBinAddr: 0x100008DE0, symSize: 0x68 }
  - { offsetInCU: 0x1B413, offset: 0x264D1, size: 0x8, addend: 0x0, symName: __ZN2yy6parser17yy_lr_goto_state_Eai, symObjAddr: 0xA84, symBinAddr: 0x100008E48, symSize: 0xC4 }
  - { offsetInCU: 0x1B458, offset: 0x26516, size: 0x8, addend: 0x0, symName: __ZN2yy6parser25yy_pact_value_is_default_Ei, symObjAddr: 0xB48, symBinAddr: 0x100008F0C, symSize: 0x20 }
  - { offsetInCU: 0x1B47F, offset: 0x2653D, size: 0x8, addend: 0x0, symName: __ZN2yy6parser24yy_table_value_is_error_Ei, symObjAddr: 0xB68, symBinAddr: 0x100008F2C, symSize: 0x20 }
  - { offsetInCU: 0x1B4A6, offset: 0x26564, size: 0x8, addend: 0x0, symName: __ZN2yy6parserclEv, symObjAddr: 0xB88, symBinAddr: 0x100008F4C, symSize: 0x2C }
  - { offsetInCU: 0x1B4CF, offset: 0x2658D, size: 0x8, addend: 0x0, symName: __ZN2yy6parser5parseEv, symObjAddr: 0xBB4, symBinAddr: 0x100008F78, symSize: 0x1A80 }
  - { offsetInCU: 0x1B6E6, offset: 0x267A4, size: 0x8, addend: 0x0, symName: __ZN2yy6parser11symbol_typeC1Ev, symObjAddr: 0x26C4, symBinAddr: 0x10000AA88, symSize: 0x2C }
  - { offsetInCU: 0x1B713, offset: 0x267D1, size: 0x8, addend: 0x0, symName: __ZN2yy6parser5stackINS0_17stack_symbol_typeENSt3__16vectorIS2_NS3_9allocatorIS2_EEEEE5clearEv, symObjAddr: 0x26F0, symBinAddr: 0x10000AAB4, symSize: 0x24 }
  - { offsetInCU: 0x1B739, offset: 0x267F7, size: 0x8, addend: 0x0, symName: __ZN2yy6parser5stackINS0_17stack_symbol_typeENSt3__16vectorIS2_NS3_9allocatorIS2_EEEEEixEl, symObjAddr: 0x2714, symBinAddr: 0x10000AAD8, symSize: 0x44 }
  - { offsetInCU: 0x1B76E, offset: 0x2682C, size: 0x8, addend: 0x0, symName: __ZNK2yy6parser12basic_symbolINS0_7by_kindEE5emptyEv, symObjAddr: 0x2758, symBinAddr: 0x10000AB1C, symSize: 0x30 }
  - { offsetInCU: 0x1B796, offset: 0x26854, size: 0x8, addend: 0x0, symName: __ZN2yy6parser5errorERKNS0_12syntax_errorE, symObjAddr: 0x2788, symBinAddr: 0x10000AB4C, symSize: 0x98 }
  - { offsetInCU: 0x1B7DD, offset: 0x2689B, size: 0x8, addend: 0x0, symName: __ZN2yy6parser5stackINS0_17stack_symbol_typeENSt3__16vectorIS2_NS3_9allocatorIS2_EEEEE5sliceC1ERKS8_l, symObjAddr: 0x282C, symBinAddr: 0x10000ABE4, symSize: 0x3C }
  - { offsetInCU: 0x1B825, offset: 0x268E3, size: 0x8, addend: 0x0, symName: __ZNK2yy6parser5stackINS0_17stack_symbol_typeENSt3__16vectorIS2_NS3_9allocatorIS2_EEEEE5sliceixEl, symObjAddr: 0x2868, symBinAddr: 0x10000AC20, symSize: 0x38 }
  - { offsetInCU: 0x1B85A, offset: 0x26918, size: 0x8, addend: 0x0, symName: __ZN10ProgramASTC1ERNSt3__16vectorIP7DeclASTNS0_9allocatorIS3_EEEE, symObjAddr: 0x28A0, symBinAddr: 0x10000AC58, symSize: 0x34 }
  - { offsetInCU: 0x1B891, offset: 0x2694F, size: 0x8, addend: 0x0, symName: __Z3allIP7DeclASTEPNSt3__16vectorIT_NS2_9allocatorIS4_EEEES8_S8_, symObjAddr: 0x28D4, symBinAddr: 0x10000AC8C, symSize: 0x7C }
  - { offsetInCU: 0x1B8D5, offset: 0x26993, size: 0x8, addend: 0x0, symName: __ZNSt3__16vectorIP7DeclASTNS_9allocatorIS2_EEEC1B8ue170006Ev, symObjAddr: 0x2950, symBinAddr: 0x10000AD08, symSize: 0x2C }
  - { offsetInCU: 0x1B8FE, offset: 0x269BC, size: 0x8, addend: 0x0, symName: __Z8make_vecIP7DeclASTEPNSt3__16vectorIT_NS2_9allocatorIS4_EEEERKS4_, symObjAddr: 0x297C, symBinAddr: 0x10000AD34, symSize: 0x44 }
  - { offsetInCU: 0x1B943, offset: 0x26A01, size: 0x8, addend: 0x0, symName: __ZNSt3__16vectorIP6VarASTNS_9allocatorIS2_EEE9push_backB8ue170006ERKS2_, symObjAddr: 0x29C0, symBinAddr: 0x10000AD78, symSize: 0x6C }
  - { offsetInCU: 0x1B979, offset: 0x26A37, size: 0x8, addend: 0x0, symName: __Z8make_vecIP6VarASTEPNSt3__16vectorIT_NS2_9allocatorIS4_EEEERKS4_, symObjAddr: 0x2A2C, symBinAddr: 0x10000ADE4, symSize: 0x44 }
  - { offsetInCU: 0x1B9BE, offset: 0x26A7C, size: 0x8, addend: 0x0, symName: __ZN6VarASTC1ERKNSt3__112basic_stringIcNS0_11char_traitsIcEENS0_9allocatorIcEEEEP7ExprAST, symObjAddr: 0x2A70, symBinAddr: 0x10000AE28, symSize: 0x3C }
  - { offsetInCU: 0x1BA04, offset: 0x26AC2, size: 0x8, addend: 0x0, symName: __ZN8EntryASTC1ENSt3__112basic_stringIcNS0_11char_traitsIcEENS0_9allocatorIcEEEE, symObjAddr: 0x2AAC, symBinAddr: 0x10000AE64, symSize: 0x34 }
  - { offsetInCU: 0x1BA3D, offset: 0x26AFB, size: 0x8, addend: 0x0, symName: __ZN7FuncASTC1ENSt3__112basic_stringIcNS0_11char_traitsIcEENS0_9allocatorIcEEEERNS0_6vectorIS6_NS4_IS6_EEEERNS7_IP11OperatorASTNS4_ISC_EEEE, symObjAddr: 0x2AE0, symBinAddr: 0x10000AE98, symSize: 0x44 }
  - { offsetInCU: 0x1BA92, offset: 0x26B50, size: 0x8, addend: 0x0, symName: __ZNSt3__16vectorIP11OperatorASTNS_9allocatorIS2_EEE9push_backB8ue170006ERKS2_, symObjAddr: 0x2B24, symBinAddr: 0x10000AEDC, symSize: 0x6C }
  - { offsetInCU: 0x1BAC8, offset: 0x26B86, size: 0x8, addend: 0x0, symName: __Z8make_vecIP11OperatorASTEPNSt3__16vectorIT_NS2_9allocatorIS4_EEEERKS4_, symObjAddr: 0x2B90, symBinAddr: 0x10000AF48, symSize: 0x44 }
  - { offsetInCU: 0x1BB0D, offset: 0x26BCB, size: 0x8, addend: 0x0, symName: __ZNSt3__16vectorIP11OperatorASTNS_9allocatorIS2_EEEC1B8ue170006Ev, symObjAddr: 0x2BD4, symBinAddr: 0x10000AF8C, symSize: 0x2C }
  - { offsetInCU: 0x1BB37, offset: 0x26BF5, size: 0x8, addend: 0x0, symName: __ZNSt3__16vectorINS_12basic_stringIcNS_11char_traitsIcEENS_9allocatorIcEEEENS4_IS6_EEEC1B8ue170006Ev, symObjAddr: 0x2C00, symBinAddr: 0x10000AFB8, symSize: 0x2C }
  - { offsetInCU: 0x1BB61, offset: 0x26C1F, size: 0x8, addend: 0x0, symName: __ZN18AssignStatementASTC1ENSt3__112basic_stringIcNS0_11char_traitsIcEENS0_9allocatorIcEEEEP7ExprAST, symObjAddr: 0x2C2C, symBinAddr: 0x10000AFE4, symSize: 0x3C }
  - { offsetInCU: 0x1BBA8, offset: 0x26C66, size: 0x8, addend: 0x0, symName: __ZN18ReturnStatementASTC1EP7ExprAST, symObjAddr: 0x2C68, symBinAddr: 0x10000B020, symSize: 0x34 }
  - { offsetInCU: 0x1BBE0, offset: 0x26C9E, size: 0x8, addend: 0x0, symName: __ZN16ExprStatementASTC1EP7ExprAST, symObjAddr: 0x2C9C, symBinAddr: 0x10000B054, symSize: 0x34 }
  - { offsetInCU: 0x1BC18, offset: 0x26CD6, size: 0x8, addend: 0x0, symName: __ZNSt3__16vectorIP7TermASTNS_9allocatorIS2_EEE9push_backB8ue170006ERKS2_, symObjAddr: 0x2CD0, symBinAddr: 0x10000B088, symSize: 0x6C }
  - { offsetInCU: 0x1BC4F, offset: 0x26D0D, size: 0x8, addend: 0x0, symName: __ZNSt3__16vectorIcNS_9allocatorIcEEE9push_backB8ue170006EOc, symObjAddr: 0x2D3C, symBinAddr: 0x10000B0F4, symSize: 0x6C }
  - { offsetInCU: 0x1BC86, offset: 0x26D44, size: 0x8, addend: 0x0, symName: __ZN7ExprASTC1Ev, symObjAddr: 0x2DA8, symBinAddr: 0x10000B160, symSize: 0x2C }
  - { offsetInCU: 0x1BCB2, offset: 0x26D70, size: 0x8, addend: 0x0, symName: __ZNSt3__16vectorIP9FactorASTNS_9allocatorIS2_EEE9push_backB8ue170006ERKS2_, symObjAddr: 0x2DD4, symBinAddr: 0x10000B18C, symSize: 0x6C }
  - { offsetInCU: 0x1BCE9, offset: 0x26DA7, size: 0x8, addend: 0x0, symName: __ZN7TermASTC1Ev, symObjAddr: 0x2E40, symBinAddr: 0x10000B1F8, symSize: 0x2C }
  - { offsetInCU: 0x1BD15, offset: 0x26DD3, size: 0x8, addend: 0x0, symName: __ZN9FactorASTC1EcP4PAST, symObjAddr: 0x2E6C, symBinAddr: 0x10000B224, symSize: 0x3C }
  - { offsetInCU: 0x1BDA9, offset: 0x26E67, size: 0x8, addend: 0x0, symName: __ZN8IdentASTC1ENSt3__112basic_stringIcNS0_11char_traitsIcEENS0_9allocatorIcEEEE, symObjAddr: 0x2EA8, symBinAddr: 0x10000B260, symSize: 0x34 }
  - { offsetInCU: 0x1BE30, offset: 0x26EEE, size: 0x8, addend: 0x0, symName: __ZN9NumberASTC1Ei, symObjAddr: 0x2EDC, symBinAddr: 0x10000B294, symSize: 0x34 }
  - { offsetInCU: 0x1BEB6, offset: 0x26F74, size: 0x8, addend: 0x0, symName: __ZN8FCallASTC1ENSt3__112basic_stringIcNS0_11char_traitsIcEENS0_9allocatorIcEEEE, symObjAddr: 0x2F10, symBinAddr: 0x10000B2C8, symSize: 0x34 }
  - { offsetInCU: 0x1BF3E, offset: 0x26FFC, size: 0x8, addend: 0x0, symName: __ZN12InnerExprASTC1EP7ExprAST, symObjAddr: 0x2F44, symBinAddr: 0x10000B2FC, symSize: 0x34 }
  - { offsetInCU: 0x1BF7B, offset: 0x27039, size: 0x8, addend: 0x0, symName: __ZNSt3__112basic_stringIcNS_11char_traitsIcEENS_9allocatorIcEEEC1B8ue170006ILi0EEEPKc, symObjAddr: 0x2F78, symBinAddr: 0x10000B330, symSize: 0x34 }
  - { offsetInCU: 0x1BFBF, offset: 0x2707D, size: 0x8, addend: 0x0, symName: __ZNK2yy6parser11yy_destroy_INS0_7by_kindEEEvPKcRNS0_12basic_symbolIT_EE, symObjAddr: 0x2FAC, symBinAddr: 0x10000B364, symSize: 0x44 }
  - { offsetInCU: 0x1C00C, offset: 0x270CA, size: 0x8, addend: 0x0, symName: __ZN2yy6parser12basic_symbolINS0_7by_kindEE5clearEv, symObjAddr: 0x2FF0, symBinAddr: 0x10000B3A8, symSize: 0x24 }
  - { offsetInCU: 0x1C032, offset: 0x270F0, size: 0x8, addend: 0x0, symName: __ZNK2yy6parser5stackINS0_17stack_symbol_typeENSt3__16vectorIS2_NS3_9allocatorIS2_EEEEE4sizeEv, symObjAddr: 0x3014, symBinAddr: 0x10000B3CC, symSize: 0x24 }
  - { offsetInCU: 0x1C058, offset: 0x27116, size: 0x8, addend: 0x0, symName: __ZNK2yy6parser11yy_destroy_INS0_8by_stateEEEvPKcRNS0_12basic_symbolIT_EE, symObjAddr: 0x3038, symBinAddr: 0x10000B3F0, symSize: 0x44 }
  - { offsetInCU: 0x1C0A5, offset: 0x27163, size: 0x8, addend: 0x0, symName: __ZN2yy6parser11symbol_typeD1Ev, symObjAddr: 0x307C, symBinAddr: 0x10000B434, symSize: 0x2C }
  - { offsetInCU: 0x1C0D2, offset: 0x27190, size: 0x8, addend: 0x0, symName: __ZN2yy6parser5errorERKNS_8locationERKNSt3__112basic_stringIcNS4_11char_traitsIcEENS4_9allocatorIcEEEE, symObjAddr: 0x30A8, symBinAddr: 0x10000B460, symSize: 0x60 }
  - { offsetInCU: 0x1C119, offset: 0x271D7, size: 0x8, addend: 0x0, symName: __ZN2yy6parser5stackINS0_17stack_symbol_typeENSt3__16vectorIS2_NS3_9allocatorIS2_EEEEED2Ev, symObjAddr: 0x33A8, symBinAddr: 0x10000B694, symSize: 0x2C }
  - { offsetInCU: 0x1C146, offset: 0x27204, size: 0x8, addend: 0x0, symName: __ZNSt3__16vectorIN2yy6parser17stack_symbol_typeENS_9allocatorIS3_EEED1B8ue170006Ev, symObjAddr: 0x33D4, symBinAddr: 0x10000B6C0, symSize: 0x2C }
  - { offsetInCU: 0x1C170, offset: 0x2722E, size: 0x8, addend: 0x0, symName: __ZNSt3__16vectorIN2yy6parser17stack_symbol_typeENS_9allocatorIS3_EEED2B8ue170006Ev, symObjAddr: 0x3400, symBinAddr: 0x10000B6EC, symSize: 0x44 }
  - { offsetInCU: 0x1C19A, offset: 0x27258, size: 0x8, addend: 0x0, symName: __ZNSt3__16vectorIN2yy6parser17stack_symbol_typeENS_9allocatorIS3_EEE16__destroy_vectorC1B8ue170006ERS6_, symObjAddr: 0x3444, symBinAddr: 0x10000B730, symSize: 0x34 }
  - { offsetInCU: 0x1C1D3, offset: 0x27291, size: 0x8, addend: 0x0, symName: __ZNSt3__16vectorIN2yy6parser17stack_symbol_typeENS_9allocatorIS3_EEE16__destroy_vectorclB8ue170006Ev, symObjAddr: 0x3478, symBinAddr: 0x10000B764, symSize: 0x90 }
  - { offsetInCU: 0x1C1F9, offset: 0x272B7, size: 0x8, addend: 0x0, symName: __ZNSt3__16vectorIN2yy6parser17stack_symbol_typeENS_9allocatorIS3_EEE16__destroy_vectorC2B8ue170006ERS6_, symObjAddr: 0x3508, symBinAddr: 0x10000B7F4, symSize: 0x20 }
  - { offsetInCU: 0x1C232, offset: 0x272F0, size: 0x8, addend: 0x0, symName: __ZNSt3__16vectorIN2yy6parser17stack_symbol_typeENS_9allocatorIS3_EEE7__clearB8ue170006Ev, symObjAddr: 0x3528, symBinAddr: 0x10000B814, symSize: 0x28 }
  - { offsetInCU: 0x1C258, offset: 0x27316, size: 0x8, addend: 0x0, symName: __ZNKSt3__16vectorIN2yy6parser17stack_symbol_typeENS_9allocatorIS3_EEE17__annotate_deleteB8ue170006Ev, symObjAddr: 0x3550, symBinAddr: 0x10000B83C, symSize: 0xD4 }
  - { offsetInCU: 0x1C27E, offset: 0x2733C, size: 0x8, addend: 0x0, symName: __ZNSt3__116allocator_traitsINS_9allocatorIN2yy6parser17stack_symbol_typeEEEE10deallocateB8ue170006ERS5_PS4_m, symObjAddr: 0x3624, symBinAddr: 0x10000B910, symSize: 0x34 }
  - { offsetInCU: 0x1C2C0, offset: 0x2737E, size: 0x8, addend: 0x0, symName: __ZNSt3__16vectorIN2yy6parser17stack_symbol_typeENS_9allocatorIS3_EEE7__allocB8ue170006Ev, symObjAddr: 0x3658, symBinAddr: 0x10000B944, symSize: 0x28 }
  - { offsetInCU: 0x1C2E6, offset: 0x273A4, size: 0x8, addend: 0x0, symName: __ZNKSt3__16vectorIN2yy6parser17stack_symbol_typeENS_9allocatorIS3_EEE8capacityB8ue170006Ev, symObjAddr: 0x3680, symBinAddr: 0x10000B96C, symSize: 0x40 }
  - { offsetInCU: 0x1C30C, offset: 0x273CA, size: 0x8, addend: 0x0, symName: __ZNSt3__16vectorIN2yy6parser17stack_symbol_typeENS_9allocatorIS3_EEE22__base_destruct_at_endB8ue170006EPS3_, symObjAddr: 0x36C0, symBinAddr: 0x10000B9AC, symSize: 0x8C }
  - { offsetInCU: 0x1C350, offset: 0x2740E, size: 0x8, addend: 0x0, symName: __ZNSt3__116allocator_traitsINS_9allocatorIN2yy6parser17stack_symbol_typeEEEE7destroyB8ue170006IS4_vEEvRS5_PT_, symObjAddr: 0x374C, symBinAddr: 0x10000BA38, symSize: 0x2C }
  - { offsetInCU: 0x1C38D, offset: 0x2744B, size: 0x8, addend: 0x0, symName: __ZNSt3__19allocatorIN2yy6parser17stack_symbol_typeEE7destroyB8ue170006EPS3_, symObjAddr: 0x378C, symBinAddr: 0x10000BA78, symSize: 0x28 }
  - { offsetInCU: 0x1C3C1, offset: 0x2747F, size: 0x8, addend: 0x0, symName: __ZNKSt3__16vectorIN2yy6parser17stack_symbol_typeENS_9allocatorIS3_EEE31__annotate_contiguous_containerB8ue170006EPKvS8_S8_S8_, symObjAddr: 0x37B4, symBinAddr: 0x10000BAA0, symSize: 0x20 }
  - { offsetInCU: 0x1C417, offset: 0x274D5, size: 0x8, addend: 0x0, symName: __ZNKSt3__16vectorIN2yy6parser17stack_symbol_typeENS_9allocatorIS3_EEE4dataB8ue170006Ev, symObjAddr: 0x37D4, symBinAddr: 0x10000BAC0, symSize: 0x28 }
  - { offsetInCU: 0x1C43D, offset: 0x274FB, size: 0x8, addend: 0x0, symName: __ZNKSt3__16vectorIN2yy6parser17stack_symbol_typeENS_9allocatorIS3_EEE4sizeB8ue170006Ev, symObjAddr: 0x37FC, symBinAddr: 0x10000BAE8, symSize: 0x28 }
  - { offsetInCU: 0x1C463, offset: 0x27521, size: 0x8, addend: 0x0, symName: __ZNSt3__19allocatorIN2yy6parser17stack_symbol_typeEE10deallocateB8ue170006EPS3_m, symObjAddr: 0x3824, symBinAddr: 0x10000BB10, symSize: 0x44 }
  - { offsetInCU: 0x1C4A5, offset: 0x27563, size: 0x8, addend: 0x0, symName: __ZNSt3__117__compressed_pairIPN2yy6parser17stack_symbol_typeENS_9allocatorIS3_EEE6secondB8ue170006Ev, symObjAddr: 0x38E4, symBinAddr: 0x10000BBD0, symSize: 0x24 }
  - { offsetInCU: 0x1C4CB, offset: 0x27589, size: 0x8, addend: 0x0, symName: __ZNSt3__122__compressed_pair_elemINS_9allocatorIN2yy6parser17stack_symbol_typeEEELi1ELb1EE5__getB8ue170006Ev, symObjAddr: 0x3908, symBinAddr: 0x10000BBF4, symSize: 0x14 }
  - { offsetInCU: 0x1C4F1, offset: 0x275AF, size: 0x8, addend: 0x0, symName: __ZNKSt3__16vectorIN2yy6parser17stack_symbol_typeENS_9allocatorIS3_EEE9__end_capB8ue170006Ev, symObjAddr: 0x391C, symBinAddr: 0x10000BC08, symSize: 0x28 }
  - { offsetInCU: 0x1C517, offset: 0x275D5, size: 0x8, addend: 0x0, symName: __ZNKSt3__117__compressed_pairIPN2yy6parser17stack_symbol_typeENS_9allocatorIS3_EEE5firstB8ue170006Ev, symObjAddr: 0x3944, symBinAddr: 0x10000BC30, symSize: 0x24 }
  - { offsetInCU: 0x1C53D, offset: 0x275FB, size: 0x8, addend: 0x0, symName: __ZNKSt3__122__compressed_pair_elemIPN2yy6parser17stack_symbol_typeELi0ELb0EE5__getB8ue170006Ev, symObjAddr: 0x3968, symBinAddr: 0x10000BC54, symSize: 0x14 }
  - { offsetInCU: 0x1C563, offset: 0x27621, size: 0x8, addend: 0x0, symName: __ZN2yy6parser17stack_symbol_typeD2Ev, symObjAddr: 0x397C, symBinAddr: 0x10000BC68, symSize: 0x2C }
  - { offsetInCU: 0x1C590, offset: 0x2764E, size: 0x8, addend: 0x0, symName: __ZN2yy6parser12basic_symbolINS0_8by_stateEED2Ev, symObjAddr: 0x39A8, symBinAddr: 0x10000BC94, symSize: 0x2C }
  - { offsetInCU: 0x1C5BA, offset: 0x27678, size: 0x8, addend: 0x0, symName: __ZN2yy6parser12basic_symbolINS0_8by_stateEE5clearEv, symObjAddr: 0x39D4, symBinAddr: 0x10000BCC0, symSize: 0x24 }
  - { offsetInCU: 0x1C5E0, offset: 0x2769E, size: 0x8, addend: 0x0, symName: __ZN2yy6parser11symbol_typeC2Ev, symObjAddr: 0x39F8, symBinAddr: 0x10000BCE4, symSize: 0x2C }
  - { offsetInCU: 0x1C60D, offset: 0x276CB, size: 0x8, addend: 0x0, symName: __ZN2yy6parser12basic_symbolINS0_7by_kindEEC2Ev, symObjAddr: 0x3A24, symBinAddr: 0x10000BD10, symSize: 0x64 }
  - { offsetInCU: 0x1C637, offset: 0x276F5, size: 0x8, addend: 0x0, symName: __ZN2yy8positionC1EPKNSt3__112basic_stringIcNS1_11char_traitsIcEENS1_9allocatorIcEEEEii, symObjAddr: 0x3A88, symBinAddr: 0x10000BD74, symSize: 0x44 }
  - { offsetInCU: 0x1C68B, offset: 0x27749, size: 0x8, addend: 0x0, symName: __ZN2yy8locationC1ERKNS_8positionE, symObjAddr: 0x3ACC, symBinAddr: 0x10000BDB8, symSize: 0x34 }
  - { offsetInCU: 0x1C6C3, offset: 0x27781, size: 0x8, addend: 0x0, symName: __ZN2yy8positionC2EPKNSt3__112basic_stringIcNS1_11char_traitsIcEENS1_9allocatorIcEEEEii, symObjAddr: 0x3B00, symBinAddr: 0x10000BDEC, symSize: 0x38 }
  - { offsetInCU: 0x1C717, offset: 0x277D5, size: 0x8, addend: 0x0, symName: __ZN2yy8locationC2ERKNS_8positionE, symObjAddr: 0x3B38, symBinAddr: 0x10000BE24, symSize: 0x30 }
  - { offsetInCU: 0x1C74F, offset: 0x2780D, size: 0x8, addend: 0x0, symName: __ZN10ProgramASTC2ERNSt3__16vectorIP7DeclASTNS0_9allocatorIS3_EEEE, symObjAddr: 0x3B68, symBinAddr: 0x10000BE54, symSize: 0x34 }
  - { offsetInCU: 0x1C787, offset: 0x27845, size: 0x8, addend: 0x0, symName: __ZNSt3__16vectorIP7DeclASTNS_9allocatorIS2_EEEC1ERKS5_, symObjAddr: 0x3B9C, symBinAddr: 0x10000BE88, symSize: 0x34 }
  - { offsetInCU: 0x1C7C2, offset: 0x27880, size: 0x8, addend: 0x0, symName: __ZNSt3__16vectorIP7DeclASTNS_9allocatorIS2_EEEC2ERKS5_, symObjAddr: 0x3BD0, symBinAddr: 0x10000BEBC, symSize: 0x94 }
  - { offsetInCU: 0x1C807, offset: 0x278C5, size: 0x8, addend: 0x0, symName: __ZNSt3__116allocator_traitsINS_9allocatorIP7DeclASTEEE37select_on_container_copy_constructionB8ue170006IS4_vvEES4_RKS4_, symObjAddr: 0x3C64, symBinAddr: 0x10000BF50, symSize: 0x10 }
  - { offsetInCU: 0x1C836, offset: 0x278F4, size: 0x8, addend: 0x0, symName: __ZNKSt3__16vectorIP7DeclASTNS_9allocatorIS2_EEE7__allocB8ue170006Ev, symObjAddr: 0x3C74, symBinAddr: 0x10000BF60, symSize: 0x28 }
  - { offsetInCU: 0x1C866, offset: 0x27924, size: 0x8, addend: 0x0, symName: __ZNSt3__117__compressed_pairIPP7DeclASTNS_9allocatorIS2_EEEC1B8ue170006IDnS5_EEOT_OT0_, symObjAddr: 0x3C9C, symBinAddr: 0x10000BF88, symSize: 0x3C }
  - { offsetInCU: 0x1C8BE, offset: 0x2797C, size: 0x8, addend: 0x0, symName: __ZNSt3__16vectorIP7DeclASTNS_9allocatorIS2_EEE16__init_with_sizeB8ue170006IPS2_S7_EEvT_T0_m, symObjAddr: 0x3CD8, symBinAddr: 0x10000BFC4, symSize: 0xB8 }
  - { offsetInCU: 0x1C932, offset: 0x279F0, size: 0x8, addend: 0x0, symName: __ZNKSt3__16vectorIP7DeclASTNS_9allocatorIS2_EEE4sizeB8ue170006Ev, symObjAddr: 0x3D90, symBinAddr: 0x10000C07C, symSize: 0x28 }
  - { offsetInCU: 0x1C958, offset: 0x27A16, size: 0x8, addend: 0x0, symName: __ZNKSt3__117__compressed_pairIPP7DeclASTNS_9allocatorIS2_EEE6secondB8ue170006Ev, symObjAddr: 0x3DB8, symBinAddr: 0x10000C0A4, symSize: 0x24 }
  - { offsetInCU: 0x1C97E, offset: 0x27A3C, size: 0x8, addend: 0x0, symName: __ZNKSt3__122__compressed_pair_elemINS_9allocatorIP7DeclASTEELi1ELb1EE5__getB8ue170006Ev, symObjAddr: 0x3DDC, symBinAddr: 0x10000C0C8, symSize: 0x14 }
  - { offsetInCU: 0x1C9A4, offset: 0x27A62, size: 0x8, addend: 0x0, symName: __ZNSt3__117__compressed_pairIPP7DeclASTNS_9allocatorIS2_EEEC2B8ue170006IDnS5_EEOT_OT0_, symObjAddr: 0x3DF0, symBinAddr: 0x10000C0DC, symSize: 0x44 }
  - { offsetInCU: 0x1C9FC, offset: 0x27ABA, size: 0x8, addend: 0x0, symName: __ZNSt3__122__compressed_pair_elemIPP7DeclASTLi0ELb0EEC2B8ue170006IDnvEEOT_, symObjAddr: 0x3E34, symBinAddr: 0x10000C120, symSize: 0x1C }
  - { offsetInCU: 0x1CA3E, offset: 0x27AFC, size: 0x8, addend: 0x0, symName: __ZNSt3__122__compressed_pair_elemINS_9allocatorIP7DeclASTEELi1ELb1EEC2B8ue170006IS4_vEEOT_, symObjAddr: 0x3E50, symBinAddr: 0x10000C13C, symSize: 0x18 }
  - { offsetInCU: 0x1CA80, offset: 0x27B3E, size: 0x8, addend: 0x0, symName: __ZNSt3__16vectorIP7DeclASTNS_9allocatorIS2_EEE16__destroy_vectorC1B8ue170006ERS5_, symObjAddr: 0x3EA8, symBinAddr: 0x10000C194, symSize: 0x34 }
  - { offsetInCU: 0x1CAB9, offset: 0x27B77, size: 0x8, addend: 0x0, symName: __ZNSt3__16vectorIP7DeclASTNS_9allocatorIS2_EEE11__vallocateB8ue170006Em, symObjAddr: 0x3EDC, symBinAddr: 0x10000C1C8, symSize: 0xAC }
  - { offsetInCU: 0x1CAFD, offset: 0x27BBB, size: 0x8, addend: 0x0, symName: __ZNSt3__16vectorIP7DeclASTNS_9allocatorIS2_EEE18__construct_at_endIPS2_S7_EEvT_T0_m, symObjAddr: 0x3F88, symBinAddr: 0x10000C274, symSize: 0x8C }
  - { offsetInCU: 0x1CB73, offset: 0x27C31, size: 0x8, addend: 0x0, symName: __ZNSt3__128__exception_guard_exceptionsINS_6vectorIP7DeclASTNS_9allocatorIS3_EEE16__destroy_vectorEE10__completeB8ue170006Ev, symObjAddr: 0x4014, symBinAddr: 0x10000C300, symSize: 0x1C }
  - { offsetInCU: 0x1CB99, offset: 0x27C57, size: 0x8, addend: 0x0, symName: __ZNSt3__128__exception_guard_exceptionsINS_6vectorIP7DeclASTNS_9allocatorIS3_EEE16__destroy_vectorEED1B8ue170006Ev, symObjAddr: 0x4030, symBinAddr: 0x10000C31C, symSize: 0x2C }
  - { offsetInCU: 0x1CBC3, offset: 0x27C81, size: 0x8, addend: 0x0, symName: __ZNSt3__128__exception_guard_exceptionsINS_6vectorIP7DeclASTNS_9allocatorIS3_EEE16__destroy_vectorEEC1B8ue170006ES7_, symObjAddr: 0x405C, symBinAddr: 0x10000C348, symSize: 0x34 }
  - { offsetInCU: 0x1CBFB, offset: 0x27CB9, size: 0x8, addend: 0x0, symName: __ZNSt3__128__exception_guard_exceptionsINS_6vectorIP7DeclASTNS_9allocatorIS3_EEE16__destroy_vectorEEC2B8ue170006ES7_, symObjAddr: 0x4090, symBinAddr: 0x10000C37C, symSize: 0x24 }
  - { offsetInCU: 0x1CC33, offset: 0x27CF1, size: 0x8, addend: 0x0, symName: __ZNSt3__16vectorIP7DeclASTNS_9allocatorIS2_EEE16__destroy_vectorC2B8ue170006ERS5_, symObjAddr: 0x40B4, symBinAddr: 0x10000C3A0, symSize: 0x20 }
  - { offsetInCU: 0x1CC6C, offset: 0x27D2A, size: 0x8, addend: 0x0, symName: __ZNKSt3__16vectorIP7DeclASTNS_9allocatorIS2_EEE8max_sizeEv, symObjAddr: 0x40D4, symBinAddr: 0x10000C3C0, symSize: 0x60 }
  - { offsetInCU: 0x1CC94, offset: 0x27D52, size: 0x8, addend: 0x0, symName: __ZNKSt3__16vectorIP7DeclASTNS_9allocatorIS2_EEE20__throw_length_errorB8ue170006Ev, symObjAddr: 0x4134, symBinAddr: 0x10000C420, symSize: 0x1C }
  - { offsetInCU: 0x1CCBA, offset: 0x27D78, size: 0x8, addend: 0x0, symName: __ZNSt3__16vectorIP7DeclASTNS_9allocatorIS2_EEE7__allocB8ue170006Ev, symObjAddr: 0x4190, symBinAddr: 0x10000C47C, symSize: 0x28 }
  - { offsetInCU: 0x1CCE0, offset: 0x27D9E, size: 0x8, addend: 0x0, symName: __ZNSt3__16vectorIP7DeclASTNS_9allocatorIS2_EEE9__end_capB8ue170006Ev, symObjAddr: 0x41B8, symBinAddr: 0x10000C4A4, symSize: 0x28 }
  - { offsetInCU: 0x1CD06, offset: 0x27DC4, size: 0x8, addend: 0x0, symName: __ZNKSt3__16vectorIP7DeclASTNS_9allocatorIS2_EEE14__annotate_newB8ue170006Em, symObjAddr: 0x41E0, symBinAddr: 0x10000C4CC, symSize: 0xAC }
  - { offsetInCU: 0x1CD3B, offset: 0x27DF9, size: 0x8, addend: 0x0, symName: __ZNSt3__116allocator_traitsINS_9allocatorIP7DeclASTEEE8max_sizeB8ue170006IS4_vEEmRKS4_, symObjAddr: 0x42B8, symBinAddr: 0x10000C5A4, symSize: 0x24 }
  - { offsetInCU: 0x1CD69, offset: 0x27E27, size: 0x8, addend: 0x0, symName: __ZNSt3__114numeric_limitsIlE3maxB8ue170006Ev, symObjAddr: 0x42DC, symBinAddr: 0x10000C5C8, symSize: 0x14 }
  - { offsetInCU: 0x1CD91, offset: 0x27E4F, size: 0x8, addend: 0x0, symName: __ZNKSt3__16__lessIvvEclB8ue170006ImmEEbRKT_RKT0_, symObjAddr: 0x4344, symBinAddr: 0x10000C630, symSize: 0x34 }
  - { offsetInCU: 0x1CDE5, offset: 0x27EA3, size: 0x8, addend: 0x0, symName: __ZNKSt3__19allocatorIP7DeclASTE8max_sizeB8ue170006Ev, symObjAddr: 0x4378, symBinAddr: 0x10000C664, symSize: 0x14 }
  - { offsetInCU: 0x1CE0B, offset: 0x27EC9, size: 0x8, addend: 0x0, symName: __ZNSt3__123__libcpp_numeric_limitsIlLb1EE3maxB8ue170006Ev, symObjAddr: 0x438C, symBinAddr: 0x10000C678, symSize: 0x8 }
  - { offsetInCU: 0x1CE1F, offset: 0x27EDD, size: 0x8, addend: 0x0, symName: __ZNSt3__19allocatorIP7DeclASTE8allocateB8ue170006Em, symObjAddr: 0x4478, symBinAddr: 0x10000C680, symSize: 0x58 }
  - { offsetInCU: 0x1CE53, offset: 0x27F11, size: 0x8, addend: 0x0, symName: __ZNSt3__117__compressed_pairIPP7DeclASTNS_9allocatorIS2_EEE6secondB8ue170006Ev, symObjAddr: 0x4550, symBinAddr: 0x10000C6D8, symSize: 0x24 }
  - { offsetInCU: 0x1CE79, offset: 0x27F37, size: 0x8, addend: 0x0, symName: __ZNSt3__122__compressed_pair_elemINS_9allocatorIP7DeclASTEELi1ELb1EE5__getB8ue170006Ev, symObjAddr: 0x4574, symBinAddr: 0x10000C6FC, symSize: 0x14 }
  - { offsetInCU: 0x1CE9F, offset: 0x27F5D, size: 0x8, addend: 0x0, symName: __ZNSt3__117__compressed_pairIPP7DeclASTNS_9allocatorIS2_EEE5firstB8ue170006Ev, symObjAddr: 0x4588, symBinAddr: 0x10000C710, symSize: 0x24 }
  - { offsetInCU: 0x1CEC5, offset: 0x27F83, size: 0x8, addend: 0x0, symName: __ZNSt3__122__compressed_pair_elemIPP7DeclASTLi0ELb0EE5__getB8ue170006Ev, symObjAddr: 0x45AC, symBinAddr: 0x10000C734, symSize: 0x14 }
  - { offsetInCU: 0x1CEEB, offset: 0x27FA9, size: 0x8, addend: 0x0, symName: __ZNKSt3__16vectorIP7DeclASTNS_9allocatorIS2_EEE31__annotate_contiguous_containerB8ue170006EPKvS7_S7_S7_, symObjAddr: 0x45C0, symBinAddr: 0x10000C748, symSize: 0x20 }
  - { offsetInCU: 0x1CF41, offset: 0x27FFF, size: 0x8, addend: 0x0, symName: __ZNKSt3__16vectorIP7DeclASTNS_9allocatorIS2_EEE4dataB8ue170006Ev, symObjAddr: 0x45E0, symBinAddr: 0x10000C768, symSize: 0x28 }
  - { offsetInCU: 0x1CF67, offset: 0x28025, size: 0x8, addend: 0x0, symName: __ZNKSt3__16vectorIP7DeclASTNS_9allocatorIS2_EEE8capacityB8ue170006Ev, symObjAddr: 0x4608, symBinAddr: 0x10000C790, symSize: 0x40 }
  - { offsetInCU: 0x1CF8D, offset: 0x2804B, size: 0x8, addend: 0x0, symName: __ZNKSt3__16vectorIP7DeclASTNS_9allocatorIS2_EEE9__end_capB8ue170006Ev, symObjAddr: 0x465C, symBinAddr: 0x10000C7E4, symSize: 0x28 }
  - { offsetInCU: 0x1CFB3, offset: 0x28071, size: 0x8, addend: 0x0, symName: __ZNKSt3__117__compressed_pairIPP7DeclASTNS_9allocatorIS2_EEE5firstB8ue170006Ev, symObjAddr: 0x4684, symBinAddr: 0x10000C80C, symSize: 0x24 }
  - { offsetInCU: 0x1CFD9, offset: 0x28097, size: 0x8, addend: 0x0, symName: __ZNKSt3__122__compressed_pair_elemIPP7DeclASTLi0ELb0EE5__getB8ue170006Ev, symObjAddr: 0x46A8, symBinAddr: 0x10000C830, symSize: 0x14 }
  - { offsetInCU: 0x1D018, offset: 0x280D6, size: 0x8, addend: 0x0, symName: __ZNSt3__16vectorIP7DeclASTNS_9allocatorIS2_EEE21_ConstructTransactionC1B8ue170006ERS5_m, symObjAddr: 0x46BC, symBinAddr: 0x10000C844, symSize: 0x3C }
  - { offsetInCU: 0x1D060, offset: 0x2811E, size: 0x8, addend: 0x0, symName: __ZNSt3__16vectorIP7DeclASTNS_9allocatorIS2_EEE21_ConstructTransactionD1B8ue170006Ev, symObjAddr: 0x4778, symBinAddr: 0x10000C900, symSize: 0x2C }
  - { offsetInCU: 0x1D08A, offset: 0x28148, size: 0x8, addend: 0x0, symName: __ZNSt3__16vectorIP7DeclASTNS_9allocatorIS2_EEE21_ConstructTransactionC2B8ue170006ERS5_m, symObjAddr: 0x47A4, symBinAddr: 0x10000C92C, symSize: 0x44 }
  - { offsetInCU: 0x1D0F0, offset: 0x281AE, size: 0x8, addend: 0x0, symName: __ZNSt3__14pairIPP7DeclASTS3_EC1B8ue170006IS3_S3_LPv0EEEOT_OT0_, symObjAddr: 0x4918, symBinAddr: 0x10000CAA0, symSize: 0x3C }
  - { offsetInCU: 0x1D14F, offset: 0x2820D, size: 0x8, addend: 0x0, symName: __ZNSt3__14pairIPP7DeclASTS3_EC2B8ue170006IS3_S3_LPv0EEEOT_OT0_, symObjAddr: 0x4954, symBinAddr: 0x10000CADC, symSize: 0x34 }
  - { offsetInCU: 0x1D1B8, offset: 0x28276, size: 0x8, addend: 0x0, symName: __ZNKSt3__114__copy_trivialclB8ue170006IP7DeclASTS3_Li0EEENS_4pairIPT_PT0_EES6_S6_S8_, symObjAddr: 0x4B04, symBinAddr: 0x10000CC8C, symSize: 0x48 }
  - { offsetInCU: 0x1D220, offset: 0x282DE, size: 0x8, addend: 0x0, symName: __ZNSt3__14pairIPP7DeclASTS3_EC1B8ue170006IRS3_S3_LPv0EEEOT_OT0_, symObjAddr: 0x4C94, symBinAddr: 0x10000CE1C, symSize: 0x3C }
  - { offsetInCU: 0x1D27F, offset: 0x2833D, size: 0x8, addend: 0x0, symName: __ZNSt3__14pairIPP7DeclASTS3_EC2B8ue170006IRS3_S3_LPv0EEEOT_OT0_, symObjAddr: 0x4CD0, symBinAddr: 0x10000CE58, symSize: 0x34 }
  - { offsetInCU: 0x1D2DE, offset: 0x2839C, size: 0x8, addend: 0x0, symName: __ZNSt3__118__unwrap_iter_implIPP7DeclASTLb1EE8__unwrapB8ue170006ES3_, symObjAddr: 0x4D04, symBinAddr: 0x10000CE8C, symSize: 0x24 }
  - { offsetInCU: 0x1D301, offset: 0x283BF, size: 0x8, addend: 0x0, symName: __ZNSt3__118__unwrap_iter_implIPP7DeclASTLb1EE8__rewrapB8ue170006ES3_S3_, symObjAddr: 0x4D28, symBinAddr: 0x10000CEB0, symSize: 0x50 }
  - { offsetInCU: 0x1D332, offset: 0x283F0, size: 0x8, addend: 0x0, symName: __ZNSt3__16vectorIP7DeclASTNS_9allocatorIS2_EEE21_ConstructTransactionD2B8ue170006Ev, symObjAddr: 0x4D78, symBinAddr: 0x10000CF00, symSize: 0x20 }
  - { offsetInCU: 0x1D35C, offset: 0x2841A, size: 0x8, addend: 0x0, symName: __ZNSt3__128__exception_guard_exceptionsINS_6vectorIP7DeclASTNS_9allocatorIS3_EEE16__destroy_vectorEED2B8ue170006Ev, symObjAddr: 0x4D98, symBinAddr: 0x10000CF20, symSize: 0x50 }
  - { offsetInCU: 0x1D386, offset: 0x28444, size: 0x8, addend: 0x0, symName: __ZNSt3__16vectorIP7DeclASTNS_9allocatorIS2_EEE16__destroy_vectorclB8ue170006Ev, symObjAddr: 0x4DE8, symBinAddr: 0x10000CF70, symSize: 0x90 }
  - { offsetInCU: 0x1D3AC, offset: 0x2846A, size: 0x8, addend: 0x0, symName: __ZNSt3__16vectorIP7DeclASTNS_9allocatorIS2_EEE7__clearB8ue170006Ev, symObjAddr: 0x4E78, symBinAddr: 0x10000D000, symSize: 0x28 }
  - { offsetInCU: 0x1D3D2, offset: 0x28490, size: 0x8, addend: 0x0, symName: __ZNKSt3__16vectorIP7DeclASTNS_9allocatorIS2_EEE17__annotate_deleteB8ue170006Ev, symObjAddr: 0x4EA0, symBinAddr: 0x10000D028, symSize: 0xB8 }
  - { offsetInCU: 0x1D3F8, offset: 0x284B6, size: 0x8, addend: 0x0, symName: __ZNSt3__116allocator_traitsINS_9allocatorIP7DeclASTEEE10deallocateB8ue170006ERS4_PS3_m, symObjAddr: 0x4F58, symBinAddr: 0x10000D0E0, symSize: 0x34 }
  - { offsetInCU: 0x1D43A, offset: 0x284F8, size: 0x8, addend: 0x0, symName: __ZNSt3__16vectorIP7DeclASTNS_9allocatorIS2_EEE22__base_destruct_at_endB8ue170006EPS2_, symObjAddr: 0x4F8C, symBinAddr: 0x10000D114, symSize: 0x8C }
  - { offsetInCU: 0x1D47E, offset: 0x2853C, size: 0x8, addend: 0x0, symName: __ZNSt3__116allocator_traitsINS_9allocatorIP7DeclASTEEE7destroyB8ue170006IS3_vEEvRS4_PT_, symObjAddr: 0x5018, symBinAddr: 0x10000D1A0, symSize: 0x2C }
  - { offsetInCU: 0x1D4BB, offset: 0x28579, size: 0x8, addend: 0x0, symName: __ZNSt3__19allocatorIP7DeclASTE7destroyB8ue170006EPS2_, symObjAddr: 0x5044, symBinAddr: 0x10000D1CC, symSize: 0x14 }
  - { offsetInCU: 0x1D4EF, offset: 0x285AD, size: 0x8, addend: 0x0, symName: __ZNSt3__19allocatorIP7DeclASTE10deallocateB8ue170006EPS2_m, symObjAddr: 0x5058, symBinAddr: 0x10000D1E0, symSize: 0x40 }
  - { offsetInCU: 0x1D531, offset: 0x285EF, size: 0x8, addend: 0x0, symName: __ZN6VarASTC2ERKNSt3__112basic_stringIcNS0_11char_traitsIcEENS0_9allocatorIcEEEEP7ExprAST, symObjAddr: 0x5098, symBinAddr: 0x10000D220, symSize: 0x8C }
  - { offsetInCU: 0x1D577, offset: 0x28635, size: 0x8, addend: 0x0, symName: __ZN7DeclASTC2Ev, symObjAddr: 0x5124, symBinAddr: 0x10000D2AC, symSize: 0x24 }
  - { offsetInCU: 0x1D5A3, offset: 0x28661, size: 0x8, addend: 0x0, symName: __ZN7DeclASTD2Ev, symObjAddr: 0x5148, symBinAddr: 0x10000D2D0, symSize: 0x14 }
  - { offsetInCU: 0x1D5CD, offset: 0x2868B, size: 0x8, addend: 0x0, symName: __ZN6VarASTD1Ev, symObjAddr: 0x515C, symBinAddr: 0x10000D2E4, symSize: 0x2C }
  - { offsetInCU: 0x1D5F7, offset: 0x286B5, size: 0x8, addend: 0x0, symName: __ZN6VarASTD0Ev, symObjAddr: 0x5188, symBinAddr: 0x10000D310, symSize: 0x30 }
  - { offsetInCU: 0x1D621, offset: 0x286DF, size: 0x8, addend: 0x0, symName: __ZN7DeclASTD1Ev, symObjAddr: 0x51B8, symBinAddr: 0x10000D340, symSize: 0x2C }
  - { offsetInCU: 0x1D64B, offset: 0x28709, size: 0x8, addend: 0x0, symName: __ZN7DeclASTD0Ev, symObjAddr: 0x51E4, symBinAddr: 0x10000D36C, symSize: 0x30 }
  - { offsetInCU: 0x1D675, offset: 0x28733, size: 0x8, addend: 0x0, symName: __ZN6VarASTD2Ev, symObjAddr: 0x5214, symBinAddr: 0x10000D39C, symSize: 0x80 }
  - { offsetInCU: 0x1D69F, offset: 0x2875D, size: 0x8, addend: 0x0, symName: __ZN7ExprASTD1Ev, symObjAddr: 0x5294, symBinAddr: 0x10000D41C, symSize: 0x2C }
  - { offsetInCU: 0x1D6C9, offset: 0x28787, size: 0x8, addend: 0x0, symName: __ZN7ExprASTD2Ev, symObjAddr: 0x52C0, symBinAddr: 0x10000D448, symSize: 0xC0 }
  - { offsetInCU: 0x1D747, offset: 0x28805, size: 0x8, addend: 0x0, symName: __ZNSt3__16vectorIP7TermASTNS_9allocatorIS2_EEE5beginB8ue170006Ev, symObjAddr: 0x5380, symBinAddr: 0x10000D508, symSize: 0x30 }
  - { offsetInCU: 0x1D76F, offset: 0x2882D, size: 0x8, addend: 0x0, symName: __ZNSt3__16vectorIP7TermASTNS_9allocatorIS2_EEE3endB8ue170006Ev, symObjAddr: 0x53B0, symBinAddr: 0x10000D538, symSize: 0x30 }
  - { offsetInCU: 0x1D797, offset: 0x28855, size: 0x8, addend: 0x0, symName: __ZNKSt3__111__wrap_iterIPP7TermASTEdeB8ue170006Ev, symObjAddr: 0x5414, symBinAddr: 0x10000D59C, symSize: 0x18 }
  - { offsetInCU: 0x1D7BD, offset: 0x2887B, size: 0x8, addend: 0x0, symName: __ZN7TermASTD1Ev, symObjAddr: 0x542C, symBinAddr: 0x10000D5B4, symSize: 0x2C }
  - { offsetInCU: 0x1D7E7, offset: 0x288A5, size: 0x8, addend: 0x0, symName: __ZNSt3__111__wrap_iterIPP7TermASTEppB8ue170006Ev, symObjAddr: 0x5458, symBinAddr: 0x10000D5E0, symSize: 0x20 }
  - { offsetInCU: 0x1D80D, offset: 0x288CB, size: 0x8, addend: 0x0, symName: __ZNSt3__16vectorIcNS_9allocatorIcEEED1B8ue170006Ev, symObjAddr: 0x5478, symBinAddr: 0x10000D600, symSize: 0x2C }
  - { offsetInCU: 0x1D837, offset: 0x288F5, size: 0x8, addend: 0x0, symName: __ZNSt3__16vectorIP7TermASTNS_9allocatorIS2_EEED1B8ue170006Ev, symObjAddr: 0x54A4, symBinAddr: 0x10000D62C, symSize: 0x2C }
  - { offsetInCU: 0x1D861, offset: 0x2891F, size: 0x8, addend: 0x0, symName: __ZNSt3__16vectorIP7TermASTNS_9allocatorIS2_EEE11__make_iterB8ue170006EPS2_, symObjAddr: 0x54D0, symBinAddr: 0x10000D658, symSize: 0x30 }
  - { offsetInCU: 0x1D896, offset: 0x28954, size: 0x8, addend: 0x0, symName: __ZNSt3__111__wrap_iterIPP7TermASTEC1B8ue170006ES3_, symObjAddr: 0x5500, symBinAddr: 0x10000D688, symSize: 0x34 }
  - { offsetInCU: 0x1D8CE, offset: 0x2898C, size: 0x8, addend: 0x0, symName: __ZNSt3__111__wrap_iterIPP7TermASTEC2B8ue170006ES3_, symObjAddr: 0x5534, symBinAddr: 0x10000D6BC, symSize: 0x20 }
  - { offsetInCU: 0x1D906, offset: 0x289C4, size: 0x8, addend: 0x0, symName: __ZNKSt3__111__wrap_iterIPP7TermASTE4baseB8ue170006Ev, symObjAddr: 0x559C, symBinAddr: 0x10000D724, symSize: 0x18 }
  - { offsetInCU: 0x1D92C, offset: 0x289EA, size: 0x8, addend: 0x0, symName: __ZN7TermASTD2Ev, symObjAddr: 0x55B4, symBinAddr: 0x10000D73C, symSize: 0xC0 }
  - { offsetInCU: 0x1D9AA, offset: 0x28A68, size: 0x8, addend: 0x0, symName: __ZNSt3__16vectorIP9FactorASTNS_9allocatorIS2_EEE5beginB8ue170006Ev, symObjAddr: 0x5674, symBinAddr: 0x10000D7FC, symSize: 0x30 }
  - { offsetInCU: 0x1D9D2, offset: 0x28A90, size: 0x8, addend: 0x0, symName: __ZNSt3__16vectorIP9FactorASTNS_9allocatorIS2_EEE3endB8ue170006Ev, symObjAddr: 0x56A4, symBinAddr: 0x10000D82C, symSize: 0x30 }
  - { offsetInCU: 0x1D9FA, offset: 0x28AB8, size: 0x8, addend: 0x0, symName: __ZNKSt3__111__wrap_iterIPP9FactorASTEdeB8ue170006Ev, symObjAddr: 0x5708, symBinAddr: 0x10000D890, symSize: 0x18 }
  - { offsetInCU: 0x1DA20, offset: 0x28ADE, size: 0x8, addend: 0x0, symName: __ZN9FactorASTD1Ev, symObjAddr: 0x5720, symBinAddr: 0x10000D8A8, symSize: 0x2C }
  - { offsetInCU: 0x1DA4A, offset: 0x28B08, size: 0x8, addend: 0x0, symName: __ZNSt3__111__wrap_iterIPP9FactorASTEppB8ue170006Ev, symObjAddr: 0x574C, symBinAddr: 0x10000D8D4, symSize: 0x20 }
  - { offsetInCU: 0x1DA70, offset: 0x28B2E, size: 0x8, addend: 0x0, symName: __ZNSt3__16vectorIP9FactorASTNS_9allocatorIS2_EEED1B8ue170006Ev, symObjAddr: 0x576C, symBinAddr: 0x10000D8F4, symSize: 0x2C }
  - { offsetInCU: 0x1DA9A, offset: 0x28B58, size: 0x8, addend: 0x0, symName: __ZNSt3__16vectorIP9FactorASTNS_9allocatorIS2_EEE11__make_iterB8ue170006EPS2_, symObjAddr: 0x5798, symBinAddr: 0x10000D920, symSize: 0x30 }
  - { offsetInCU: 0x1DACF, offset: 0x28B8D, size: 0x8, addend: 0x0, symName: __ZNSt3__111__wrap_iterIPP9FactorASTEC1B8ue170006ES3_, symObjAddr: 0x57C8, symBinAddr: 0x10000D950, symSize: 0x34 }
  - { offsetInCU: 0x1DB07, offset: 0x28BC5, size: 0x8, addend: 0x0, symName: __ZNSt3__111__wrap_iterIPP9FactorASTEC2B8ue170006ES3_, symObjAddr: 0x57FC, symBinAddr: 0x10000D984, symSize: 0x20 }
  - { offsetInCU: 0x1DB3F, offset: 0x28BFD, size: 0x8, addend: 0x0, symName: __ZNKSt3__111__wrap_iterIPP9FactorASTE4baseB8ue170006Ev, symObjAddr: 0x5864, symBinAddr: 0x10000D9EC, symSize: 0x18 }
  - { offsetInCU: 0x1DB65, offset: 0x28C23, size: 0x8, addend: 0x0, symName: __ZN9FactorASTD2Ev, symObjAddr: 0x587C, symBinAddr: 0x10000DA04, symSize: 0x58 }
  - { offsetInCU: 0x1DB8F, offset: 0x28C4D, size: 0x8, addend: 0x0, symName: __ZNSt3__16vectorIP9FactorASTNS_9allocatorIS2_EEED2B8ue170006Ev, symObjAddr: 0x58D4, symBinAddr: 0x10000DA5C, symSize: 0x44 }
  - { offsetInCU: 0x1DBB9, offset: 0x28C77, size: 0x8, addend: 0x0, symName: __ZNSt3__16vectorIP9FactorASTNS_9allocatorIS2_EEE16__destroy_vectorC1B8ue170006ERS5_, symObjAddr: 0x5918, symBinAddr: 0x10000DAA0, symSize: 0x34 }
  - { offsetInCU: 0x1DBF2, offset: 0x28CB0, size: 0x8, addend: 0x0, symName: __ZNSt3__16vectorIP9FactorASTNS_9allocatorIS2_EEE16__destroy_vectorclB8ue170006Ev, symObjAddr: 0x594C, symBinAddr: 0x10000DAD4, symSize: 0x90 }
  - { offsetInCU: 0x1DC18, offset: 0x28CD6, size: 0x8, addend: 0x0, symName: __ZNSt3__16vectorIP9FactorASTNS_9allocatorIS2_EEE16__destroy_vectorC2B8ue170006ERS5_, symObjAddr: 0x59DC, symBinAddr: 0x10000DB64, symSize: 0x20 }
  - { offsetInCU: 0x1DC51, offset: 0x28D0F, size: 0x8, addend: 0x0, symName: __ZNSt3__16vectorIP9FactorASTNS_9allocatorIS2_EEE7__clearB8ue170006Ev, symObjAddr: 0x59FC, symBinAddr: 0x10000DB84, symSize: 0x28 }
  - { offsetInCU: 0x1DC77, offset: 0x28D35, size: 0x8, addend: 0x0, symName: __ZNKSt3__16vectorIP9FactorASTNS_9allocatorIS2_EEE17__annotate_deleteB8ue170006Ev, symObjAddr: 0x5A24, symBinAddr: 0x10000DBAC, symSize: 0xB8 }
  - { offsetInCU: 0x1DC9D, offset: 0x28D5B, size: 0x8, addend: 0x0, symName: __ZNSt3__116allocator_traitsINS_9allocatorIP9FactorASTEEE10deallocateB8ue170006ERS4_PS3_m, symObjAddr: 0x5ADC, symBinAddr: 0x10000DC64, symSize: 0x34 }
  - { offsetInCU: 0x1DCDF, offset: 0x28D9D, size: 0x8, addend: 0x0, symName: __ZNSt3__16vectorIP9FactorASTNS_9allocatorIS2_EEE7__allocB8ue170006Ev, symObjAddr: 0x5B10, symBinAddr: 0x10000DC98, symSize: 0x28 }
  - { offsetInCU: 0x1DD05, offset: 0x28DC3, size: 0x8, addend: 0x0, symName: __ZNKSt3__16vectorIP9FactorASTNS_9allocatorIS2_EEE8capacityB8ue170006Ev, symObjAddr: 0x5B38, symBinAddr: 0x10000DCC0, symSize: 0x40 }
  - { offsetInCU: 0x1DD2B, offset: 0x28DE9, size: 0x8, addend: 0x0, symName: __ZNSt3__16vectorIP9FactorASTNS_9allocatorIS2_EEE22__base_destruct_at_endB8ue170006EPS2_, symObjAddr: 0x5B78, symBinAddr: 0x10000DD00, symSize: 0x8C }
  - { offsetInCU: 0x1DD6F, offset: 0x28E2D, size: 0x8, addend: 0x0, symName: __ZNSt3__116allocator_traitsINS_9allocatorIP9FactorASTEEE7destroyB8ue170006IS3_vEEvRS4_PT_, symObjAddr: 0x5C04, symBinAddr: 0x10000DD8C, symSize: 0x2C }
  - { offsetInCU: 0x1DDAC, offset: 0x28E6A, size: 0x8, addend: 0x0, symName: __ZNSt3__19allocatorIP9FactorASTE7destroyB8ue170006EPS2_, symObjAddr: 0x5C44, symBinAddr: 0x10000DDCC, symSize: 0x14 }
  - { offsetInCU: 0x1DDE0, offset: 0x28E9E, size: 0x8, addend: 0x0, symName: __ZNKSt3__16vectorIP9FactorASTNS_9allocatorIS2_EEE31__annotate_contiguous_containerB8ue170006EPKvS7_S7_S7_, symObjAddr: 0x5C58, symBinAddr: 0x10000DDE0, symSize: 0x20 }
  - { offsetInCU: 0x1DE36, offset: 0x28EF4, size: 0x8, addend: 0x0, symName: __ZNKSt3__16vectorIP9FactorASTNS_9allocatorIS2_EEE4dataB8ue170006Ev, symObjAddr: 0x5C78, symBinAddr: 0x10000DE00, symSize: 0x28 }
  - { offsetInCU: 0x1DE5C, offset: 0x28F1A, size: 0x8, addend: 0x0, symName: __ZNKSt3__16vectorIP9FactorASTNS_9allocatorIS2_EEE4sizeB8ue170006Ev, symObjAddr: 0x5CA0, symBinAddr: 0x10000DE28, symSize: 0x28 }
  - { offsetInCU: 0x1DE82, offset: 0x28F40, size: 0x8, addend: 0x0, symName: __ZNSt3__19allocatorIP9FactorASTE10deallocateB8ue170006EPS2_m, symObjAddr: 0x5CC8, symBinAddr: 0x10000DE50, symSize: 0x40 }
  - { offsetInCU: 0x1DEC4, offset: 0x28F82, size: 0x8, addend: 0x0, symName: __ZNSt3__117__compressed_pairIPP9FactorASTNS_9allocatorIS2_EEE6secondB8ue170006Ev, symObjAddr: 0x5D08, symBinAddr: 0x10000DE90, symSize: 0x24 }
  - { offsetInCU: 0x1DEEA, offset: 0x28FA8, size: 0x8, addend: 0x0, symName: __ZNSt3__122__compressed_pair_elemINS_9allocatorIP9FactorASTEELi1ELb1EE5__getB8ue170006Ev, symObjAddr: 0x5D2C, symBinAddr: 0x10000DEB4, symSize: 0x14 }
  - { offsetInCU: 0x1DF10, offset: 0x28FCE, size: 0x8, addend: 0x0, symName: __ZNKSt3__16vectorIP9FactorASTNS_9allocatorIS2_EEE9__end_capB8ue170006Ev, symObjAddr: 0x5D40, symBinAddr: 0x10000DEC8, symSize: 0x28 }
  - { offsetInCU: 0x1DF36, offset: 0x28FF4, size: 0x8, addend: 0x0, symName: __ZNKSt3__117__compressed_pairIPP9FactorASTNS_9allocatorIS2_EEE5firstB8ue170006Ev, symObjAddr: 0x5D68, symBinAddr: 0x10000DEF0, symSize: 0x24 }
  - { offsetInCU: 0x1DF5C, offset: 0x2901A, size: 0x8, addend: 0x0, symName: __ZNKSt3__122__compressed_pair_elemIPP9FactorASTLi0ELb0EE5__getB8ue170006Ev, symObjAddr: 0x5D8C, symBinAddr: 0x10000DF14, symSize: 0x14 }
  - { offsetInCU: 0x1DF82, offset: 0x29040, size: 0x8, addend: 0x0, symName: __ZNSt3__16vectorIcNS_9allocatorIcEEED2B8ue170006Ev, symObjAddr: 0x5DA0, symBinAddr: 0x10000DF28, symSize: 0x44 }
  - { offsetInCU: 0x1DFAC, offset: 0x2906A, size: 0x8, addend: 0x0, symName: __ZNSt3__16vectorIcNS_9allocatorIcEEE16__destroy_vectorC1B8ue170006ERS3_, symObjAddr: 0x5DE4, symBinAddr: 0x10000DF6C, symSize: 0x34 }
  - { offsetInCU: 0x1DFE5, offset: 0x290A3, size: 0x8, addend: 0x0, symName: __ZNSt3__16vectorIcNS_9allocatorIcEEE16__destroy_vectorclB8ue170006Ev, symObjAddr: 0x5E18, symBinAddr: 0x10000DFA0, symSize: 0x90 }
  - { offsetInCU: 0x1E00B, offset: 0x290C9, size: 0x8, addend: 0x0, symName: __ZNSt3__16vectorIcNS_9allocatorIcEEE16__destroy_vectorC2B8ue170006ERS3_, symObjAddr: 0x5EA8, symBinAddr: 0x10000E030, symSize: 0x20 }
  - { offsetInCU: 0x1E044, offset: 0x29102, size: 0x8, addend: 0x0, symName: __ZNSt3__16vectorIcNS_9allocatorIcEEE7__clearB8ue170006Ev, symObjAddr: 0x5EC8, symBinAddr: 0x10000E050, symSize: 0x28 }
  - { offsetInCU: 0x1E06A, offset: 0x29128, size: 0x8, addend: 0x0, symName: __ZNKSt3__16vectorIcNS_9allocatorIcEEE17__annotate_deleteB8ue170006Ev, symObjAddr: 0x5EF0, symBinAddr: 0x10000E078, symSize: 0xB8 }
  - { offsetInCU: 0x1E090, offset: 0x2914E, size: 0x8, addend: 0x0, symName: __ZNSt3__116allocator_traitsINS_9allocatorIcEEE10deallocateB8ue170006ERS2_Pcm, symObjAddr: 0x5FA8, symBinAddr: 0x10000E130, symSize: 0x34 }
  - { offsetInCU: 0x1E0D2, offset: 0x29190, size: 0x8, addend: 0x0, symName: __ZNSt3__16vectorIcNS_9allocatorIcEEE7__allocB8ue170006Ev, symObjAddr: 0x5FDC, symBinAddr: 0x10000E164, symSize: 0x28 }
  - { offsetInCU: 0x1E0F8, offset: 0x291B6, size: 0x8, addend: 0x0, symName: __ZNKSt3__16vectorIcNS_9allocatorIcEEE8capacityB8ue170006Ev, symObjAddr: 0x6004, symBinAddr: 0x10000E18C, symSize: 0x38 }
  - { offsetInCU: 0x1E11E, offset: 0x291DC, size: 0x8, addend: 0x0, symName: __ZNSt3__16vectorIcNS_9allocatorIcEEE22__base_destruct_at_endB8ue170006EPc, symObjAddr: 0x603C, symBinAddr: 0x10000E1C4, symSize: 0x8C }
  - { offsetInCU: 0x1E162, offset: 0x29220, size: 0x8, addend: 0x0, symName: __ZNSt3__116allocator_traitsINS_9allocatorIcEEE7destroyB8ue170006IcvEEvRS2_PT_, symObjAddr: 0x60C8, symBinAddr: 0x10000E250, symSize: 0x2C }
  - { offsetInCU: 0x1E19F, offset: 0x2925D, size: 0x8, addend: 0x0, symName: __ZNSt3__19allocatorIcE7destroyB8ue170006EPc, symObjAddr: 0x6108, symBinAddr: 0x10000E290, symSize: 0x14 }
  - { offsetInCU: 0x1E1D3, offset: 0x29291, size: 0x8, addend: 0x0, symName: __ZNKSt3__16vectorIcNS_9allocatorIcEEE31__annotate_contiguous_containerB8ue170006EPKvS5_S5_S5_, symObjAddr: 0x611C, symBinAddr: 0x10000E2A4, symSize: 0x20 }
  - { offsetInCU: 0x1E229, offset: 0x292E7, size: 0x8, addend: 0x0, symName: __ZNKSt3__16vectorIcNS_9allocatorIcEEE4dataB8ue170006Ev, symObjAddr: 0x613C, symBinAddr: 0x10000E2C4, symSize: 0x28 }
  - { offsetInCU: 0x1E24F, offset: 0x2930D, size: 0x8, addend: 0x0, symName: __ZNKSt3__16vectorIcNS_9allocatorIcEEE4sizeB8ue170006Ev, symObjAddr: 0x6164, symBinAddr: 0x10000E2EC, symSize: 0x20 }
  - { offsetInCU: 0x1E275, offset: 0x29333, size: 0x8, addend: 0x0, symName: __ZNSt3__19allocatorIcE10deallocateB8ue170006EPcm, symObjAddr: 0x6184, symBinAddr: 0x10000E30C, symSize: 0x40 }
  - { offsetInCU: 0x1E2B7, offset: 0x29375, size: 0x8, addend: 0x0, symName: __ZNSt3__117__compressed_pairIPcNS_9allocatorIcEEE6secondB8ue170006Ev, symObjAddr: 0x61C4, symBinAddr: 0x10000E34C, symSize: 0x24 }
  - { offsetInCU: 0x1E2DD, offset: 0x2939B, size: 0x8, addend: 0x0, symName: __ZNKSt3__16vectorIcNS_9allocatorIcEEE9__end_capB8ue170006Ev, symObjAddr: 0x61FC, symBinAddr: 0x10000E370, symSize: 0x28 }
  - { offsetInCU: 0x1E303, offset: 0x293C1, size: 0x8, addend: 0x0, symName: __ZNKSt3__117__compressed_pairIPcNS_9allocatorIcEEE5firstB8ue170006Ev, symObjAddr: 0x6224, symBinAddr: 0x10000E398, symSize: 0x24 }
  - { offsetInCU: 0x1E329, offset: 0x293E7, size: 0x8, addend: 0x0, symName: __ZNKSt3__122__compressed_pair_elemIPcLi0ELb0EE5__getB8ue170006Ev, symObjAddr: 0x6248, symBinAddr: 0x10000E3BC, symSize: 0x14 }
  - { offsetInCU: 0x1E34F, offset: 0x2940D, size: 0x8, addend: 0x0, symName: __ZNSt3__16vectorIP7TermASTNS_9allocatorIS2_EEED2B8ue170006Ev, symObjAddr: 0x625C, symBinAddr: 0x10000E3D0, symSize: 0x44 }
  - { offsetInCU: 0x1E379, offset: 0x29437, size: 0x8, addend: 0x0, symName: __ZNSt3__16vectorIP7TermASTNS_9allocatorIS2_EEE16__destroy_vectorC1B8ue170006ERS5_, symObjAddr: 0x62A0, symBinAddr: 0x10000E414, symSize: 0x34 }
  - { offsetInCU: 0x1E3B2, offset: 0x29470, size: 0x8, addend: 0x0, symName: __ZNSt3__16vectorIP7TermASTNS_9allocatorIS2_EEE16__destroy_vectorclB8ue170006Ev, symObjAddr: 0x62D4, symBinAddr: 0x10000E448, symSize: 0x90 }
  - { offsetInCU: 0x1E3D8, offset: 0x29496, size: 0x8, addend: 0x0, symName: __ZNSt3__16vectorIP7TermASTNS_9allocatorIS2_EEE16__destroy_vectorC2B8ue170006ERS5_, symObjAddr: 0x6364, symBinAddr: 0x10000E4D8, symSize: 0x20 }
  - { offsetInCU: 0x1E411, offset: 0x294CF, size: 0x8, addend: 0x0, symName: __ZNSt3__16vectorIP7TermASTNS_9allocatorIS2_EEE7__clearB8ue170006Ev, symObjAddr: 0x6384, symBinAddr: 0x10000E4F8, symSize: 0x28 }
  - { offsetInCU: 0x1E437, offset: 0x294F5, size: 0x8, addend: 0x0, symName: __ZNKSt3__16vectorIP7TermASTNS_9allocatorIS2_EEE17__annotate_deleteB8ue170006Ev, symObjAddr: 0x63AC, symBinAddr: 0x10000E520, symSize: 0xB8 }
  - { offsetInCU: 0x1E45D, offset: 0x2951B, size: 0x8, addend: 0x0, symName: __ZNSt3__116allocator_traitsINS_9allocatorIP7TermASTEEE10deallocateB8ue170006ERS4_PS3_m, symObjAddr: 0x6464, symBinAddr: 0x10000E5D8, symSize: 0x34 }
  - { offsetInCU: 0x1E49F, offset: 0x2955D, size: 0x8, addend: 0x0, symName: __ZNSt3__16vectorIP7TermASTNS_9allocatorIS2_EEE7__allocB8ue170006Ev, symObjAddr: 0x6498, symBinAddr: 0x10000E60C, symSize: 0x28 }
  - { offsetInCU: 0x1E4C5, offset: 0x29583, size: 0x8, addend: 0x0, symName: __ZNKSt3__16vectorIP7TermASTNS_9allocatorIS2_EEE8capacityB8ue170006Ev, symObjAddr: 0x64C0, symBinAddr: 0x10000E634, symSize: 0x40 }
  - { offsetInCU: 0x1E4EB, offset: 0x295A9, size: 0x8, addend: 0x0, symName: __ZNSt3__16vectorIP7TermASTNS_9allocatorIS2_EEE22__base_destruct_at_endB8ue170006EPS2_, symObjAddr: 0x6500, symBinAddr: 0x10000E674, symSize: 0x8C }
  - { offsetInCU: 0x1E52F, offset: 0x295ED, size: 0x8, addend: 0x0, symName: __ZNSt3__116allocator_traitsINS_9allocatorIP7TermASTEEE7destroyB8ue170006IS3_vEEvRS4_PT_, symObjAddr: 0x658C, symBinAddr: 0x10000E700, symSize: 0x2C }
  - { offsetInCU: 0x1E56C, offset: 0x2962A, size: 0x8, addend: 0x0, symName: __ZNSt3__19allocatorIP7TermASTE7destroyB8ue170006EPS2_, symObjAddr: 0x65CC, symBinAddr: 0x10000E740, symSize: 0x14 }
  - { offsetInCU: 0x1E5A0, offset: 0x2965E, size: 0x8, addend: 0x0, symName: __ZNKSt3__16vectorIP7TermASTNS_9allocatorIS2_EEE31__annotate_contiguous_containerB8ue170006EPKvS7_S7_S7_, symObjAddr: 0x65E0, symBinAddr: 0x10000E754, symSize: 0x20 }
  - { offsetInCU: 0x1E5F6, offset: 0x296B4, size: 0x8, addend: 0x0, symName: __ZNKSt3__16vectorIP7TermASTNS_9allocatorIS2_EEE4dataB8ue170006Ev, symObjAddr: 0x6600, symBinAddr: 0x10000E774, symSize: 0x28 }
  - { offsetInCU: 0x1E61C, offset: 0x296DA, size: 0x8, addend: 0x0, symName: __ZNKSt3__16vectorIP7TermASTNS_9allocatorIS2_EEE4sizeB8ue170006Ev, symObjAddr: 0x6628, symBinAddr: 0x10000E79C, symSize: 0x28 }
  - { offsetInCU: 0x1E642, offset: 0x29700, size: 0x8, addend: 0x0, symName: __ZNSt3__19allocatorIP7TermASTE10deallocateB8ue170006EPS2_m, symObjAddr: 0x6650, symBinAddr: 0x10000E7C4, symSize: 0x40 }
  - { offsetInCU: 0x1E684, offset: 0x29742, size: 0x8, addend: 0x0, symName: __ZNSt3__117__compressed_pairIPP7TermASTNS_9allocatorIS2_EEE6secondB8ue170006Ev, symObjAddr: 0x6690, symBinAddr: 0x10000E804, symSize: 0x24 }
  - { offsetInCU: 0x1E6AA, offset: 0x29768, size: 0x8, addend: 0x0, symName: __ZNSt3__122__compressed_pair_elemINS_9allocatorIP7TermASTEELi1ELb1EE5__getB8ue170006Ev, symObjAddr: 0x66B4, symBinAddr: 0x10000E828, symSize: 0x14 }
  - { offsetInCU: 0x1E6D0, offset: 0x2978E, size: 0x8, addend: 0x0, symName: __ZNKSt3__16vectorIP7TermASTNS_9allocatorIS2_EEE9__end_capB8ue170006Ev, symObjAddr: 0x66C8, symBinAddr: 0x10000E83C, symSize: 0x28 }
  - { offsetInCU: 0x1E6F6, offset: 0x297B4, size: 0x8, addend: 0x0, symName: __ZNKSt3__117__compressed_pairIPP7TermASTNS_9allocatorIS2_EEE5firstB8ue170006Ev, symObjAddr: 0x66F0, symBinAddr: 0x10000E864, symSize: 0x24 }
  - { offsetInCU: 0x1E71C, offset: 0x297DA, size: 0x8, addend: 0x0, symName: __ZNKSt3__122__compressed_pair_elemIPP7TermASTLi0ELb0EE5__getB8ue170006Ev, symObjAddr: 0x6714, symBinAddr: 0x10000E888, symSize: 0x14 }
  - { offsetInCU: 0x1E742, offset: 0x29800, size: 0x8, addend: 0x0, symName: __ZN8EntryASTC2ENSt3__112basic_stringIcNS0_11char_traitsIcEENS0_9allocatorIcEEEE, symObjAddr: 0x6728, symBinAddr: 0x10000E89C, symSize: 0x84 }
  - { offsetInCU: 0x1E77B, offset: 0x29839, size: 0x8, addend: 0x0, symName: __ZN8EntryASTD1Ev, symObjAddr: 0x67AC, symBinAddr: 0x10000E920, symSize: 0x2C }
  - { offsetInCU: 0x1E7A7, offset: 0x29865, size: 0x8, addend: 0x0, symName: __ZN8EntryASTD0Ev, symObjAddr: 0x67D8, symBinAddr: 0x10000E94C, symSize: 0x30 }
  - { offsetInCU: 0x1E7D3, offset: 0x29891, size: 0x8, addend: 0x0, symName: __ZN8EntryASTD2Ev, symObjAddr: 0x6808, symBinAddr: 0x10000E97C, symSize: 0x48 }
  - { offsetInCU: 0x1E7FF, offset: 0x298BD, size: 0x8, addend: 0x0, symName: __ZN7FuncASTC2ENSt3__112basic_stringIcNS0_11char_traitsIcEENS0_9allocatorIcEEEERNS0_6vectorIS6_NS4_IS6_EEEERNS7_IP11OperatorASTNS4_ISC_EEEE, symObjAddr: 0x6850, symBinAddr: 0x10000E9C4, symSize: 0xF4 }
  - { offsetInCU: 0x1E854, offset: 0x29912, size: 0x8, addend: 0x0, symName: __ZNSt3__16vectorINS_12basic_stringIcNS_11char_traitsIcEENS_9allocatorIcEEEENS4_IS6_EEEC1ERKS8_, symObjAddr: 0x6944, symBinAddr: 0x10000EAB8, symSize: 0x34 }
  - { offsetInCU: 0x1E88F, offset: 0x2994D, size: 0x8, addend: 0x0, symName: __ZNSt3__16vectorIP11OperatorASTNS_9allocatorIS2_EEEC1ERKS5_, symObjAddr: 0x6978, symBinAddr: 0x10000EAEC, symSize: 0x34 }
  - { offsetInCU: 0x1E8CA, offset: 0x29988, size: 0x8, addend: 0x0, symName: __ZNSt3__16vectorINS_12basic_stringIcNS_11char_traitsIcEENS_9allocatorIcEEEENS4_IS6_EEED1B8ue170006Ev, symObjAddr: 0x69AC, symBinAddr: 0x10000EB20, symSize: 0x2C }
  - { offsetInCU: 0x1E8F4, offset: 0x299B2, size: 0x8, addend: 0x0, symName: __ZN7FuncASTD1Ev, symObjAddr: 0x69D8, symBinAddr: 0x10000EB4C, symSize: 0x2C }
  - { offsetInCU: 0x1E91E, offset: 0x299DC, size: 0x8, addend: 0x0, symName: __ZN7FuncASTD0Ev, symObjAddr: 0x6A04, symBinAddr: 0x10000EB78, symSize: 0x30 }
  - { offsetInCU: 0x1E948, offset: 0x29A06, size: 0x8, addend: 0x0, symName: __ZNSt3__16vectorINS_12basic_stringIcNS_11char_traitsIcEENS_9allocatorIcEEEENS4_IS6_EEEC2ERKS8_, symObjAddr: 0x6A34, symBinAddr: 0x10000EBA8, symSize: 0x94 }
  - { offsetInCU: 0x1E98D, offset: 0x29A4B, size: 0x8, addend: 0x0, symName: __ZNSt3__116allocator_traitsINS_9allocatorINS_12basic_stringIcNS_11char_traitsIcEENS1_IcEEEEEEE37select_on_container_copy_constructionB8ue170006IS7_vvEES7_RKS7_, symObjAddr: 0x6AC8, symBinAddr: 0x10000EC3C, symSize: 0x10 }
  - { offsetInCU: 0x1E9BC, offset: 0x29A7A, size: 0x8, addend: 0x0, symName: __ZNKSt3__16vectorINS_12basic_stringIcNS_11char_traitsIcEENS_9allocatorIcEEEENS4_IS6_EEE7__allocB8ue170006Ev, symObjAddr: 0x6AD8, symBinAddr: 0x10000EC4C, symSize: 0x28 }
  - { offsetInCU: 0x1E9E7, offset: 0x29AA5, size: 0x8, addend: 0x0, symName: __ZNSt3__117__compressed_pairIPNS_12basic_stringIcNS_11char_traitsIcEENS_9allocatorIcEEEENS4_IS6_EEEC1B8ue170006IDnS8_EEOT_OT0_, symObjAddr: 0x6B00, symBinAddr: 0x10000EC74, symSize: 0x3C }
  - { offsetInCU: 0x1EA3F, offset: 0x29AFD, size: 0x8, addend: 0x0, symName: __ZNSt3__16vectorINS_12basic_stringIcNS_11char_traitsIcEENS_9allocatorIcEEEENS4_IS6_EEE16__init_with_sizeB8ue170006IPS6_SA_EEvT_T0_m, symObjAddr: 0x6B3C, symBinAddr: 0x10000ECB0, symSize: 0xB8 }
  - { offsetInCU: 0x1EAB3, offset: 0x29B71, size: 0x8, addend: 0x0, symName: __ZNKSt3__16vectorINS_12basic_stringIcNS_11char_traitsIcEENS_9allocatorIcEEEENS4_IS6_EEE4sizeB8ue170006Ev, symObjAddr: 0x6BF4, symBinAddr: 0x10000ED68, symSize: 0x28 }
  - { offsetInCU: 0x1EAD9, offset: 0x29B97, size: 0x8, addend: 0x0, symName: __ZNKSt3__117__compressed_pairIPNS_12basic_stringIcNS_11char_traitsIcEENS_9allocatorIcEEEENS4_IS6_EEE6secondB8ue170006Ev, symObjAddr: 0x6C1C, symBinAddr: 0x10000ED90, symSize: 0x24 }
  - { offsetInCU: 0x1EAFF, offset: 0x29BBD, size: 0x8, addend: 0x0, symName: __ZNKSt3__122__compressed_pair_elemINS_9allocatorINS_12basic_stringIcNS_11char_traitsIcEENS1_IcEEEEEELi1ELb1EE5__getB8ue170006Ev, symObjAddr: 0x6C40, symBinAddr: 0x10000EDB4, symSize: 0x14 }
  - { offsetInCU: 0x1EB25, offset: 0x29BE3, size: 0x8, addend: 0x0, symName: __ZNSt3__117__compressed_pairIPNS_12basic_stringIcNS_11char_traitsIcEENS_9allocatorIcEEEENS4_IS6_EEEC2B8ue170006IDnS8_EEOT_OT0_, symObjAddr: 0x6C54, symBinAddr: 0x10000EDC8, symSize: 0x44 }
  - { offsetInCU: 0x1EB7D, offset: 0x29C3B, size: 0x8, addend: 0x0, symName: __ZNSt3__122__compressed_pair_elemIPNS_12basic_stringIcNS_11char_traitsIcEENS_9allocatorIcEEEELi0ELb0EEC2B8ue170006IDnvEEOT_, symObjAddr: 0x6C98, symBinAddr: 0x10000EE0C, symSize: 0x1C }
  - { offsetInCU: 0x1EBBF, offset: 0x29C7D, size: 0x8, addend: 0x0, symName: __ZNSt3__122__compressed_pair_elemINS_9allocatorINS_12basic_stringIcNS_11char_traitsIcEENS1_IcEEEEEELi1ELb1EEC2B8ue170006IS7_vEEOT_, symObjAddr: 0x6CB4, symBinAddr: 0x10000EE28, symSize: 0x18 }
  - { offsetInCU: 0x1EC01, offset: 0x29CBF, size: 0x8, addend: 0x0, symName: __ZNSt3__16vectorINS_12basic_stringIcNS_11char_traitsIcEENS_9allocatorIcEEEENS4_IS6_EEE16__destroy_vectorC1B8ue170006ERS8_, symObjAddr: 0x6D0C, symBinAddr: 0x10000EE80, symSize: 0x34 }
  - { offsetInCU: 0x1EC3A, offset: 0x29CF8, size: 0x8, addend: 0x0, symName: __ZNSt3__16vectorINS_12basic_stringIcNS_11char_traitsIcEENS_9allocatorIcEEEENS4_IS6_EEE11__vallocateB8ue170006Em, symObjAddr: 0x6D40, symBinAddr: 0x10000EEB4, symSize: 0xB4 }
  - { offsetInCU: 0x1EC7E, offset: 0x29D3C, size: 0x8, addend: 0x0, symName: __ZNSt3__16vectorINS_12basic_stringIcNS_11char_traitsIcEENS_9allocatorIcEEEENS4_IS6_EEE18__construct_at_endIPS6_SA_EEvT_T0_m, symObjAddr: 0x6DF4, symBinAddr: 0x10000EF68, symSize: 0x8C }
  - { offsetInCU: 0x1ECF4, offset: 0x29DB2, size: 0x8, addend: 0x0, symName: __ZNSt3__128__exception_guard_exceptionsINS_6vectorINS_12basic_stringIcNS_11char_traitsIcEENS_9allocatorIcEEEENS5_IS7_EEE16__destroy_vectorEE10__completeB8ue170006Ev, symObjAddr: 0x6E80, symBinAddr: 0x10000EFF4, symSize: 0x1C }
  - { offsetInCU: 0x1ED1A, offset: 0x29DD8, size: 0x8, addend: 0x0, symName: __ZNSt3__128__exception_guard_exceptionsINS_6vectorINS_12basic_stringIcNS_11char_traitsIcEENS_9allocatorIcEEEENS5_IS7_EEE16__destroy_vectorEED1B8ue170006Ev, symObjAddr: 0x6E9C, symBinAddr: 0x10000F010, symSize: 0x2C }
  - { offsetInCU: 0x1ED44, offset: 0x29E02, size: 0x8, addend: 0x0, symName: __ZNSt3__128__exception_guard_exceptionsINS_6vectorINS_12basic_stringIcNS_11char_traitsIcEENS_9allocatorIcEEEENS5_IS7_EEE16__destroy_vectorEEC1B8ue170006ESA_, symObjAddr: 0x6EC8, symBinAddr: 0x10000F03C, symSize: 0x34 }
  - { offsetInCU: 0x1ED7C, offset: 0x29E3A, size: 0x8, addend: 0x0, symName: __ZNSt3__128__exception_guard_exceptionsINS_6vectorINS_12basic_stringIcNS_11char_traitsIcEENS_9allocatorIcEEEENS5_IS7_EEE16__destroy_vectorEEC2B8ue170006ESA_, symObjAddr: 0x6EFC, symBinAddr: 0x10000F070, symSize: 0x24 }
  - { offsetInCU: 0x1EDB4, offset: 0x29E72, size: 0x8, addend: 0x0, symName: __ZNSt3__16vectorINS_12basic_stringIcNS_11char_traitsIcEENS_9allocatorIcEEEENS4_IS6_EEE16__destroy_vectorC2B8ue170006ERS8_, symObjAddr: 0x6F20, symBinAddr: 0x10000F094, symSize: 0x20 }
  - { offsetInCU: 0x1EDED, offset: 0x29EAB, size: 0x8, addend: 0x0, symName: __ZNKSt3__16vectorINS_12basic_stringIcNS_11char_traitsIcEENS_9allocatorIcEEEENS4_IS6_EEE8max_sizeEv, symObjAddr: 0x6F40, symBinAddr: 0x10000F0B4, symSize: 0x60 }
  - { offsetInCU: 0x1EE15, offset: 0x29ED3, size: 0x8, addend: 0x0, symName: __ZNKSt3__16vectorINS_12basic_stringIcNS_11char_traitsIcEENS_9allocatorIcEEEENS4_IS6_EEE20__throw_length_errorB8ue170006Ev, symObjAddr: 0x6FA0, symBinAddr: 0x10000F114, symSize: 0x1C }
  - { offsetInCU: 0x1EE3B, offset: 0x29EF9, size: 0x8, addend: 0x0, symName: __ZNSt3__16vectorINS_12basic_stringIcNS_11char_traitsIcEENS_9allocatorIcEEEENS4_IS6_EEE7__allocB8ue170006Ev, symObjAddr: 0x6FFC, symBinAddr: 0x10000F170, symSize: 0x28 }
  - { offsetInCU: 0x1EE61, offset: 0x29F1F, size: 0x8, addend: 0x0, symName: __ZNSt3__16vectorINS_12basic_stringIcNS_11char_traitsIcEENS_9allocatorIcEEEENS4_IS6_EEE9__end_capB8ue170006Ev, symObjAddr: 0x7024, symBinAddr: 0x10000F198, symSize: 0x28 }
  - { offsetInCU: 0x1EE87, offset: 0x29F45, size: 0x8, addend: 0x0, symName: __ZNKSt3__16vectorINS_12basic_stringIcNS_11char_traitsIcEENS_9allocatorIcEEEENS4_IS6_EEE14__annotate_newB8ue170006Em, symObjAddr: 0x704C, symBinAddr: 0x10000F1C0, symSize: 0xC8 }
  - { offsetInCU: 0x1EEBC, offset: 0x29F7A, size: 0x8, addend: 0x0, symName: __ZNSt3__116allocator_traitsINS_9allocatorINS_12basic_stringIcNS_11char_traitsIcEENS1_IcEEEEEEE8max_sizeB8ue170006IS7_vEEmRKS7_, symObjAddr: 0x7114, symBinAddr: 0x10000F288, symSize: 0x24 }
  - { offsetInCU: 0x1EEEA, offset: 0x29FA8, size: 0x8, addend: 0x0, symName: __ZNKSt3__19allocatorINS_12basic_stringIcNS_11char_traitsIcEENS0_IcEEEEE8max_sizeB8ue170006Ev, symObjAddr: 0x7138, symBinAddr: 0x10000F2AC, symSize: 0x18 }
  - { offsetInCU: 0x1EF10, offset: 0x29FCE, size: 0x8, addend: 0x0, symName: __ZNSt3__19allocatorINS_12basic_stringIcNS_11char_traitsIcEENS0_IcEEEEE8allocateB8ue170006Em, symObjAddr: 0x7150, symBinAddr: 0x10000F2C4, symSize: 0x5C }
  - { offsetInCU: 0x1EF44, offset: 0x2A002, size: 0x8, addend: 0x0, symName: __ZNSt3__117__compressed_pairIPNS_12basic_stringIcNS_11char_traitsIcEENS_9allocatorIcEEEENS4_IS6_EEE6secondB8ue170006Ev, symObjAddr: 0x71AC, symBinAddr: 0x10000F320, symSize: 0x24 }
  - { offsetInCU: 0x1EF6A, offset: 0x2A028, size: 0x8, addend: 0x0, symName: __ZNSt3__122__compressed_pair_elemINS_9allocatorINS_12basic_stringIcNS_11char_traitsIcEENS1_IcEEEEEELi1ELb1EE5__getB8ue170006Ev, symObjAddr: 0x71D0, symBinAddr: 0x10000F344, symSize: 0x14 }
  - { offsetInCU: 0x1EF90, offset: 0x2A04E, size: 0x8, addend: 0x0, symName: __ZNSt3__117__compressed_pairIPNS_12basic_stringIcNS_11char_traitsIcEENS_9allocatorIcEEEENS4_IS6_EEE5firstB8ue170006Ev, symObjAddr: 0x71E4, symBinAddr: 0x10000F358, symSize: 0x24 }
  - { offsetInCU: 0x1EFB6, offset: 0x2A074, size: 0x8, addend: 0x0, symName: __ZNSt3__122__compressed_pair_elemIPNS_12basic_stringIcNS_11char_traitsIcEENS_9allocatorIcEEEELi0ELb0EE5__getB8ue170006Ev, symObjAddr: 0x7208, symBinAddr: 0x10000F37C, symSize: 0x14 }
  - { offsetInCU: 0x1EFDC, offset: 0x2A09A, size: 0x8, addend: 0x0, symName: __ZNKSt3__16vectorINS_12basic_stringIcNS_11char_traitsIcEENS_9allocatorIcEEEENS4_IS6_EEE31__annotate_contiguous_containerB8ue170006EPKvSA_SA_SA_, symObjAddr: 0x721C, symBinAddr: 0x10000F390, symSize: 0x20 }
  - { offsetInCU: 0x1F032, offset: 0x2A0F0, size: 0x8, addend: 0x0, symName: __ZNKSt3__16vectorINS_12basic_stringIcNS_11char_traitsIcEENS_9allocatorIcEEEENS4_IS6_EEE4dataB8ue170006Ev, symObjAddr: 0x723C, symBinAddr: 0x10000F3B0, symSize: 0x28 }
  - { offsetInCU: 0x1F058, offset: 0x2A116, size: 0x8, addend: 0x0, symName: __ZNKSt3__16vectorINS_12basic_stringIcNS_11char_traitsIcEENS_9allocatorIcEEEENS4_IS6_EEE8capacityB8ue170006Ev, symObjAddr: 0x7264, symBinAddr: 0x10000F3D8, symSize: 0x40 }
  - { offsetInCU: 0x1F07E, offset: 0x2A13C, size: 0x8, addend: 0x0, symName: __ZNKSt3__16vectorINS_12basic_stringIcNS_11char_traitsIcEENS_9allocatorIcEEEENS4_IS6_EEE9__end_capB8ue170006Ev, symObjAddr: 0x72B8, symBinAddr: 0x10000F42C, symSize: 0x28 }
  - { offsetInCU: 0x1F0A4, offset: 0x2A162, size: 0x8, addend: 0x0, symName: __ZNKSt3__117__compressed_pairIPNS_12basic_stringIcNS_11char_traitsIcEENS_9allocatorIcEEEENS4_IS6_EEE5firstB8ue170006Ev, symObjAddr: 0x72E0, symBinAddr: 0x10000F454, symSize: 0x24 }
  - { offsetInCU: 0x1F0CA, offset: 0x2A188, size: 0x8, addend: 0x0, symName: __ZNKSt3__122__compressed_pair_elemIPNS_12basic_stringIcNS_11char_traitsIcEENS_9allocatorIcEEEELi0ELb0EE5__getB8ue170006Ev, symObjAddr: 0x7304, symBinAddr: 0x10000F478, symSize: 0x14 }
  - { offsetInCU: 0x1F109, offset: 0x2A1C7, size: 0x8, addend: 0x0, symName: __ZNSt3__16vectorINS_12basic_stringIcNS_11char_traitsIcEENS_9allocatorIcEEEENS4_IS6_EEE21_ConstructTransactionC1B8ue170006ERS8_m, symObjAddr: 0x7318, symBinAddr: 0x10000F48C, symSize: 0x3C }
  - { offsetInCU: 0x1F151, offset: 0x2A20F, size: 0x8, addend: 0x0, symName: __ZNSt3__16vectorINS_12basic_stringIcNS_11char_traitsIcEENS_9allocatorIcEEEENS4_IS6_EEE21_ConstructTransactionD1B8ue170006Ev, symObjAddr: 0x73D4, symBinAddr: 0x10000F548, symSize: 0x2C }
  - { offsetInCU: 0x1F17B, offset: 0x2A239, size: 0x8, addend: 0x0, symName: __ZNSt3__16vectorINS_12basic_stringIcNS_11char_traitsIcEENS_9allocatorIcEEEENS4_IS6_EEE21_ConstructTransactionC2B8ue170006ERS8_m, symObjAddr: 0x7400, symBinAddr: 0x10000F574, symSize: 0x4C }
  - { offsetInCU: 0x1F1E1, offset: 0x2A29F, size: 0x8, addend: 0x0, symName: __ZNSt3__14pairIPNS_12basic_stringIcNS_11char_traitsIcEENS_9allocatorIcEEEES7_EC1B8ue170006IS7_S7_LPv0EEEOT_OT0_, symObjAddr: 0x7638, symBinAddr: 0x10000F7AC, symSize: 0x3C }
  - { offsetInCU: 0x1F240, offset: 0x2A2FE, size: 0x8, addend: 0x0, symName: __ZNSt3__14pairIPNS_12basic_stringIcNS_11char_traitsIcEENS_9allocatorIcEEEES7_EC2B8ue170006IS7_S7_LPv0EEEOT_OT0_, symObjAddr: 0x7674, symBinAddr: 0x10000F7E8, symSize: 0x34 }
  - { offsetInCU: 0x1F29F, offset: 0x2A35D, size: 0x8, addend: 0x0, symName: __ZNSt3__129_AllocatorDestroyRangeReverseINS_9allocatorINS_12basic_stringIcNS_11char_traitsIcEENS1_IcEEEEEEPS6_EC1B8ue170006ERS7_RS8_SB_, symObjAddr: 0x76F4, symBinAddr: 0x10000F868, symSize: 0x44 }
  - { offsetInCU: 0x1F2F6, offset: 0x2A3B4, size: 0x8, addend: 0x0, symName: __ZNSt3__116allocator_traitsINS_9allocatorINS_12basic_stringIcNS_11char_traitsIcEENS1_IcEEEEEEE9constructB8ue170006IS6_JRS6_EvEEvRS7_PT_DpOT0_, symObjAddr: 0x7738, symBinAddr: 0x10000F8AC, symSize: 0x34 }
  - { offsetInCU: 0x1F34D, offset: 0x2A40B, size: 0x8, addend: 0x0, symName: __ZNSt3__128__exception_guard_exceptionsINS_29_AllocatorDestroyRangeReverseINS_9allocatorINS_12basic_stringIcNS_11char_traitsIcEENS2_IcEEEEEEPS7_EEE10__completeB8ue170006Ev, symObjAddr: 0x776C, symBinAddr: 0x10000F8E0, symSize: 0x1C }
  - { offsetInCU: 0x1F373, offset: 0x2A431, size: 0x8, addend: 0x0, symName: __ZNSt3__128__exception_guard_exceptionsINS_29_AllocatorDestroyRangeReverseINS_9allocatorINS_12basic_stringIcNS_11char_traitsIcEENS2_IcEEEEEEPS7_EEED1B8ue170006Ev, symObjAddr: 0x7788, symBinAddr: 0x10000F8FC, symSize: 0x2C }
  - { offsetInCU: 0x1F39D, offset: 0x2A45B, size: 0x8, addend: 0x0, symName: __ZNSt3__128__exception_guard_exceptionsINS_29_AllocatorDestroyRangeReverseINS_9allocatorINS_12basic_stringIcNS_11char_traitsIcEENS2_IcEEEEEEPS7_EEEC1B8ue170006ESA_, symObjAddr: 0x77B4, symBinAddr: 0x10000F928, symSize: 0x34 }
  - { offsetInCU: 0x1F3D6, offset: 0x2A494, size: 0x8, addend: 0x0, symName: __ZNSt3__128__exception_guard_exceptionsINS_29_AllocatorDestroyRangeReverseINS_9allocatorINS_12basic_stringIcNS_11char_traitsIcEENS2_IcEEEEEEPS7_EEEC2B8ue170006ESA_, symObjAddr: 0x77E8, symBinAddr: 0x10000F95C, symSize: 0x30 }
  - { offsetInCU: 0x1F40F, offset: 0x2A4CD, size: 0x8, addend: 0x0, symName: __ZNSt3__129_AllocatorDestroyRangeReverseINS_9allocatorINS_12basic_stringIcNS_11char_traitsIcEENS1_IcEEEEEEPS6_EC2B8ue170006ERS7_RS8_SB_, symObjAddr: 0x7818, symBinAddr: 0x10000F98C, symSize: 0x38 }
  - { offsetInCU: 0x1F466, offset: 0x2A524, size: 0x8, addend: 0x0, symName: __ZNSt3__19allocatorINS_12basic_stringIcNS_11char_traitsIcEENS0_IcEEEEE9constructB8ue170006IS5_JRS5_EEEvPT_DpOT0_, symObjAddr: 0x7850, symBinAddr: 0x10000F9C4, symSize: 0x30 }
  - { offsetInCU: 0x1F4BC, offset: 0x2A57A, size: 0x8, addend: 0x0, symName: __ZNSt3__128__exception_guard_exceptionsINS_29_AllocatorDestroyRangeReverseINS_9allocatorINS_12basic_stringIcNS_11char_traitsIcEENS2_IcEEEEEEPS7_EEED2B8ue170006Ev, symObjAddr: 0x7880, symBinAddr: 0x10000F9F4, symSize: 0x50 }
  - { offsetInCU: 0x1F4E6, offset: 0x2A5A4, size: 0x8, addend: 0x0, symName: __ZNKSt3__129_AllocatorDestroyRangeReverseINS_9allocatorINS_12basic_stringIcNS_11char_traitsIcEENS1_IcEEEEEEPS6_EclB8ue170006Ev, symObjAddr: 0x78D0, symBinAddr: 0x10000FA44, symSize: 0x68 }
  - { offsetInCU: 0x1F50C, offset: 0x2A5CA, size: 0x8, addend: 0x0, symName: __ZNSt3__116reverse_iteratorIPNS_12basic_stringIcNS_11char_traitsIcEENS_9allocatorIcEEEEEC1B8ue170006ES7_, symObjAddr: 0x79A8, symBinAddr: 0x10000FB1C, symSize: 0x34 }
  - { offsetInCU: 0x1F544, offset: 0x2A602, size: 0x8, addend: 0x0, symName: __ZNSt3__116allocator_traitsINS_9allocatorINS_12basic_stringIcNS_11char_traitsIcEENS1_IcEEEEEEE7destroyB8ue170006IS6_vEEvRS7_PT_, symObjAddr: 0x7A24, symBinAddr: 0x10000FB98, symSize: 0x2C }
  - { offsetInCU: 0x1F581, offset: 0x2A63F, size: 0x8, addend: 0x0, symName: __ZNSt3__116reverse_iteratorIPNS_12basic_stringIcNS_11char_traitsIcEENS_9allocatorIcEEEEEppB8ue170006Ev, symObjAddr: 0x7A74, symBinAddr: 0x10000FBE8, symSize: 0x20 }
  - { offsetInCU: 0x1F5A7, offset: 0x2A665, size: 0x8, addend: 0x0, symName: __ZNKSt3__116reverse_iteratorIPNS_12basic_stringIcNS_11char_traitsIcEENS_9allocatorIcEEEEE4baseB8ue170006Ev, symObjAddr: 0x7A94, symBinAddr: 0x10000FC08, symSize: 0x18 }
  - { offsetInCU: 0x1F5CD, offset: 0x2A68B, size: 0x8, addend: 0x0, symName: __ZNSt3__19allocatorINS_12basic_stringIcNS_11char_traitsIcEENS0_IcEEEEE7destroyB8ue170006EPS5_, symObjAddr: 0x7AAC, symBinAddr: 0x10000FC20, symSize: 0x28 }
  - { offsetInCU: 0x1F606, offset: 0x2A6C4, size: 0x8, addend: 0x0, symName: __ZNSt3__119__to_address_helperINS_16reverse_iteratorIPNS_12basic_stringIcNS_11char_traitsIcEENS_9allocatorIcEEEEEEvE6__callB8ue170006ERKS9_, symObjAddr: 0x7AD4, symBinAddr: 0x10000FC48, symSize: 0x38 }
  - { offsetInCU: 0x1F629, offset: 0x2A6E7, size: 0x8, addend: 0x0, symName: __ZNKSt3__116reverse_iteratorIPNS_12basic_stringIcNS_11char_traitsIcEENS_9allocatorIcEEEEEptB8ue170006Ev, symObjAddr: 0x7B0C, symBinAddr: 0x10000FC80, symSize: 0x24 }
  - { offsetInCU: 0x1F64F, offset: 0x2A70D, size: 0x8, addend: 0x0, symName: __ZNKSt3__116reverse_iteratorIPNS_12basic_stringIcNS_11char_traitsIcEENS_9allocatorIcEEEEEdeB8ue170006Ev, symObjAddr: 0x7B30, symBinAddr: 0x10000FCA4, symSize: 0x28 }
  - { offsetInCU: 0x1F684, offset: 0x2A742, size: 0x8, addend: 0x0, symName: __ZNSt3__116reverse_iteratorIPNS_12basic_stringIcNS_11char_traitsIcEENS_9allocatorIcEEEEEC2B8ue170006ES7_, symObjAddr: 0x7B58, symBinAddr: 0x10000FCCC, symSize: 0x28 }
  - { offsetInCU: 0x1F6BC, offset: 0x2A77A, size: 0x8, addend: 0x0, symName: __ZNSt3__118__unwrap_iter_implIPNS_12basic_stringIcNS_11char_traitsIcEENS_9allocatorIcEEEELb1EE8__unwrapB8ue170006ES7_, symObjAddr: 0x7B80, symBinAddr: 0x10000FCF4, symSize: 0x24 }
  - { offsetInCU: 0x1F6DF, offset: 0x2A79D, size: 0x8, addend: 0x0, symName: __ZNSt3__118__unwrap_iter_implIPNS_12basic_stringIcNS_11char_traitsIcEENS_9allocatorIcEEEELb1EE8__rewrapB8ue170006ES7_S7_, symObjAddr: 0x7BA4, symBinAddr: 0x10000FD18, symSize: 0x58 }
  - { offsetInCU: 0x1F710, offset: 0x2A7CE, size: 0x8, addend: 0x0, symName: __ZNSt3__16vectorINS_12basic_stringIcNS_11char_traitsIcEENS_9allocatorIcEEEENS4_IS6_EEE21_ConstructTransactionD2B8ue170006Ev, symObjAddr: 0x7BFC, symBinAddr: 0x10000FD70, symSize: 0x20 }
  - { offsetInCU: 0x1F73A, offset: 0x2A7F8, size: 0x8, addend: 0x0, symName: __ZNSt3__128__exception_guard_exceptionsINS_6vectorINS_12basic_stringIcNS_11char_traitsIcEENS_9allocatorIcEEEENS5_IS7_EEE16__destroy_vectorEED2B8ue170006Ev, symObjAddr: 0x7C1C, symBinAddr: 0x10000FD90, symSize: 0x50 }
  - { offsetInCU: 0x1F764, offset: 0x2A822, size: 0x8, addend: 0x0, symName: __ZNSt3__16vectorINS_12basic_stringIcNS_11char_traitsIcEENS_9allocatorIcEEEENS4_IS6_EEE16__destroy_vectorclB8ue170006Ev, symObjAddr: 0x7C6C, symBinAddr: 0x10000FDE0, symSize: 0x90 }
  - { offsetInCU: 0x1F78A, offset: 0x2A848, size: 0x8, addend: 0x0, symName: __ZNSt3__16vectorINS_12basic_stringIcNS_11char_traitsIcEENS_9allocatorIcEEEENS4_IS6_EEE7__clearB8ue170006Ev, symObjAddr: 0x7CFC, symBinAddr: 0x10000FE70, symSize: 0x28 }
  - { offsetInCU: 0x1F7B0, offset: 0x2A86E, size: 0x8, addend: 0x0, symName: __ZNKSt3__16vectorINS_12basic_stringIcNS_11char_traitsIcEENS_9allocatorIcEEEENS4_IS6_EEE17__annotate_deleteB8ue170006Ev, symObjAddr: 0x7D24, symBinAddr: 0x10000FE98, symSize: 0xD4 }
  - { offsetInCU: 0x1F7D6, offset: 0x2A894, size: 0x8, addend: 0x0, symName: __ZNSt3__116allocator_traitsINS_9allocatorINS_12basic_stringIcNS_11char_traitsIcEENS1_IcEEEEEEE10deallocateB8ue170006ERS7_PS6_m, symObjAddr: 0x7DF8, symBinAddr: 0x10000FF6C, symSize: 0x34 }
  - { offsetInCU: 0x1F818, offset: 0x2A8D6, size: 0x8, addend: 0x0, symName: __ZNSt3__16vectorINS_12basic_stringIcNS_11char_traitsIcEENS_9allocatorIcEEEENS4_IS6_EEE22__base_destruct_at_endB8ue170006EPS6_, symObjAddr: 0x7E2C, symBinAddr: 0x10000FFA0, symSize: 0x8C }
  - { offsetInCU: 0x1F85C, offset: 0x2A91A, size: 0x8, addend: 0x0, symName: __ZNSt3__19allocatorINS_12basic_stringIcNS_11char_traitsIcEENS0_IcEEEEE10deallocateB8ue170006EPS5_m, symObjAddr: 0x7EB8, symBinAddr: 0x10001002C, symSize: 0x44 }
  - { offsetInCU: 0x1F89E, offset: 0x2A95C, size: 0x8, addend: 0x0, symName: __ZNSt3__16vectorIP11OperatorASTNS_9allocatorIS2_EEEC2ERKS5_, symObjAddr: 0x7EFC, symBinAddr: 0x100010070, symSize: 0x94 }
  - { offsetInCU: 0x1F8E3, offset: 0x2A9A1, size: 0x8, addend: 0x0, symName: __ZNSt3__116allocator_traitsINS_9allocatorIP11OperatorASTEEE37select_on_container_copy_constructionB8ue170006IS4_vvEES4_RKS4_, symObjAddr: 0x7F90, symBinAddr: 0x100010104, symSize: 0x10 }
  - { offsetInCU: 0x1F912, offset: 0x2A9D0, size: 0x8, addend: 0x0, symName: __ZNKSt3__16vectorIP11OperatorASTNS_9allocatorIS2_EEE7__allocB8ue170006Ev, symObjAddr: 0x7FA0, symBinAddr: 0x100010114, symSize: 0x28 }
  - { offsetInCU: 0x1F93D, offset: 0x2A9FB, size: 0x8, addend: 0x0, symName: __ZNSt3__117__compressed_pairIPP11OperatorASTNS_9allocatorIS2_EEEC1B8ue170006IDnS5_EEOT_OT0_, symObjAddr: 0x7FC8, symBinAddr: 0x10001013C, symSize: 0x3C }
  - { offsetInCU: 0x1F995, offset: 0x2AA53, size: 0x8, addend: 0x0, symName: __ZNSt3__16vectorIP11OperatorASTNS_9allocatorIS2_EEE16__init_with_sizeB8ue170006IPS2_S7_EEvT_T0_m, symObjAddr: 0x8004, symBinAddr: 0x100010178, symSize: 0xB8 }
  - { offsetInCU: 0x1FA09, offset: 0x2AAC7, size: 0x8, addend: 0x0, symName: __ZNKSt3__16vectorIP11OperatorASTNS_9allocatorIS2_EEE4sizeB8ue170006Ev, symObjAddr: 0x80BC, symBinAddr: 0x100010230, symSize: 0x28 }
  - { offsetInCU: 0x1FA2F, offset: 0x2AAED, size: 0x8, addend: 0x0, symName: __ZNKSt3__117__compressed_pairIPP11OperatorASTNS_9allocatorIS2_EEE6secondB8ue170006Ev, symObjAddr: 0x80E4, symBinAddr: 0x100010258, symSize: 0x24 }
  - { offsetInCU: 0x1FA55, offset: 0x2AB13, size: 0x8, addend: 0x0, symName: __ZNKSt3__122__compressed_pair_elemINS_9allocatorIP11OperatorASTEELi1ELb1EE5__getB8ue170006Ev, symObjAddr: 0x8108, symBinAddr: 0x10001027C, symSize: 0x14 }
  - { offsetInCU: 0x1FA7B, offset: 0x2AB39, size: 0x8, addend: 0x0, symName: __ZNSt3__117__compressed_pairIPP11OperatorASTNS_9allocatorIS2_EEEC2B8ue170006IDnS5_EEOT_OT0_, symObjAddr: 0x811C, symBinAddr: 0x100010290, symSize: 0x44 }
  - { offsetInCU: 0x1FAD3, offset: 0x2AB91, size: 0x8, addend: 0x0, symName: __ZNSt3__122__compressed_pair_elemIPP11OperatorASTLi0ELb0EEC2B8ue170006IDnvEEOT_, symObjAddr: 0x8160, symBinAddr: 0x1000102D4, symSize: 0x1C }
  - { offsetInCU: 0x1FB15, offset: 0x2ABD3, size: 0x8, addend: 0x0, symName: __ZNSt3__122__compressed_pair_elemINS_9allocatorIP11OperatorASTEELi1ELb1EEC2B8ue170006IS4_vEEOT_, symObjAddr: 0x817C, symBinAddr: 0x1000102F0, symSize: 0x18 }
  - { offsetInCU: 0x1FB57, offset: 0x2AC15, size: 0x8, addend: 0x0, symName: __ZNSt3__16vectorIP11OperatorASTNS_9allocatorIS2_EEE16__destroy_vectorC1B8ue170006ERS5_, symObjAddr: 0x81D4, symBinAddr: 0x100010348, symSize: 0x34 }
  - { offsetInCU: 0x1FB90, offset: 0x2AC4E, size: 0x8, addend: 0x0, symName: __ZNSt3__16vectorIP11OperatorASTNS_9allocatorIS2_EEE11__vallocateB8ue170006Em, symObjAddr: 0x8208, symBinAddr: 0x10001037C, symSize: 0xAC }
  - { offsetInCU: 0x1FBD4, offset: 0x2AC92, size: 0x8, addend: 0x0, symName: __ZNSt3__16vectorIP11OperatorASTNS_9allocatorIS2_EEE18__construct_at_endIPS2_S7_EEvT_T0_m, symObjAddr: 0x82B4, symBinAddr: 0x100010428, symSize: 0x8C }
  - { offsetInCU: 0x1FC4A, offset: 0x2AD08, size: 0x8, addend: 0x0, symName: __ZNSt3__128__exception_guard_exceptionsINS_6vectorIP11OperatorASTNS_9allocatorIS3_EEE16__destroy_vectorEE10__completeB8ue170006Ev, symObjAddr: 0x8340, symBinAddr: 0x1000104B4, symSize: 0x1C }
  - { offsetInCU: 0x1FC70, offset: 0x2AD2E, size: 0x8, addend: 0x0, symName: __ZNSt3__128__exception_guard_exceptionsINS_6vectorIP11OperatorASTNS_9allocatorIS3_EEE16__destroy_vectorEED1B8ue170006Ev, symObjAddr: 0x835C, symBinAddr: 0x1000104D0, symSize: 0x2C }
  - { offsetInCU: 0x1FC9A, offset: 0x2AD58, size: 0x8, addend: 0x0, symName: __ZNSt3__128__exception_guard_exceptionsINS_6vectorIP11OperatorASTNS_9allocatorIS3_EEE16__destroy_vectorEEC1B8ue170006ES7_, symObjAddr: 0x8388, symBinAddr: 0x1000104FC, symSize: 0x34 }
  - { offsetInCU: 0x1FCD2, offset: 0x2AD90, size: 0x8, addend: 0x0, symName: __ZNSt3__128__exception_guard_exceptionsINS_6vectorIP11OperatorASTNS_9allocatorIS3_EEE16__destroy_vectorEEC2B8ue170006ES7_, symObjAddr: 0x83BC, symBinAddr: 0x100010530, symSize: 0x24 }
  - { offsetInCU: 0x1FD0A, offset: 0x2ADC8, size: 0x8, addend: 0x0, symName: __ZNSt3__16vectorIP11OperatorASTNS_9allocatorIS2_EEE16__destroy_vectorC2B8ue170006ERS5_, symObjAddr: 0x83E0, symBinAddr: 0x100010554, symSize: 0x20 }
  - { offsetInCU: 0x1FD43, offset: 0x2AE01, size: 0x8, addend: 0x0, symName: __ZNKSt3__16vectorIP11OperatorASTNS_9allocatorIS2_EEE8max_sizeEv, symObjAddr: 0x8400, symBinAddr: 0x100010574, symSize: 0x60 }
  - { offsetInCU: 0x1FD6B, offset: 0x2AE29, size: 0x8, addend: 0x0, symName: __ZNKSt3__16vectorIP11OperatorASTNS_9allocatorIS2_EEE20__throw_length_errorB8ue170006Ev, symObjAddr: 0x8460, symBinAddr: 0x1000105D4, symSize: 0x1C }
  - { offsetInCU: 0x1FD91, offset: 0x2AE4F, size: 0x8, addend: 0x0, symName: __ZNSt3__16vectorIP11OperatorASTNS_9allocatorIS2_EEE7__allocB8ue170006Ev, symObjAddr: 0x84BC, symBinAddr: 0x100010630, symSize: 0x28 }
  - { offsetInCU: 0x1FDB7, offset: 0x2AE75, size: 0x8, addend: 0x0, symName: __ZNSt3__16vectorIP11OperatorASTNS_9allocatorIS2_EEE9__end_capB8ue170006Ev, symObjAddr: 0x84E4, symBinAddr: 0x100010658, symSize: 0x28 }
  - { offsetInCU: 0x1FDDD, offset: 0x2AE9B, size: 0x8, addend: 0x0, symName: __ZNKSt3__16vectorIP11OperatorASTNS_9allocatorIS2_EEE14__annotate_newB8ue170006Em, symObjAddr: 0x850C, symBinAddr: 0x100010680, symSize: 0xAC }
  - { offsetInCU: 0x1FE12, offset: 0x2AED0, size: 0x8, addend: 0x0, symName: __ZNSt3__116allocator_traitsINS_9allocatorIP11OperatorASTEEE8max_sizeB8ue170006IS4_vEEmRKS4_, symObjAddr: 0x85B8, symBinAddr: 0x10001072C, symSize: 0x24 }
  - { offsetInCU: 0x1FE40, offset: 0x2AEFE, size: 0x8, addend: 0x0, symName: __ZNKSt3__19allocatorIP11OperatorASTE8max_sizeB8ue170006Ev, symObjAddr: 0x85DC, symBinAddr: 0x100010750, symSize: 0x14 }
  - { offsetInCU: 0x1FE66, offset: 0x2AF24, size: 0x8, addend: 0x0, symName: __ZNSt3__19allocatorIP11OperatorASTE8allocateB8ue170006Em, symObjAddr: 0x85F0, symBinAddr: 0x100010764, symSize: 0x58 }
  - { offsetInCU: 0x1FE9A, offset: 0x2AF58, size: 0x8, addend: 0x0, symName: __ZNSt3__117__compressed_pairIPP11OperatorASTNS_9allocatorIS2_EEE6secondB8ue170006Ev, symObjAddr: 0x8648, symBinAddr: 0x1000107BC, symSize: 0x24 }
  - { offsetInCU: 0x1FEC0, offset: 0x2AF7E, size: 0x8, addend: 0x0, symName: __ZNSt3__122__compressed_pair_elemINS_9allocatorIP11OperatorASTEELi1ELb1EE5__getB8ue170006Ev, symObjAddr: 0x866C, symBinAddr: 0x1000107E0, symSize: 0x14 }
  - { offsetInCU: 0x1FEE6, offset: 0x2AFA4, size: 0x8, addend: 0x0, symName: __ZNSt3__117__compressed_pairIPP11OperatorASTNS_9allocatorIS2_EEE5firstB8ue170006Ev, symObjAddr: 0x8680, symBinAddr: 0x1000107F4, symSize: 0x24 }
  - { offsetInCU: 0x1FF0C, offset: 0x2AFCA, size: 0x8, addend: 0x0, symName: __ZNSt3__122__compressed_pair_elemIPP11OperatorASTLi0ELb0EE5__getB8ue170006Ev, symObjAddr: 0x86A4, symBinAddr: 0x100010818, symSize: 0x14 }
  - { offsetInCU: 0x1FF32, offset: 0x2AFF0, size: 0x8, addend: 0x0, symName: __ZNKSt3__16vectorIP11OperatorASTNS_9allocatorIS2_EEE31__annotate_contiguous_containerB8ue170006EPKvS7_S7_S7_, symObjAddr: 0x86B8, symBinAddr: 0x10001082C, symSize: 0x20 }
  - { offsetInCU: 0x1FF88, offset: 0x2B046, size: 0x8, addend: 0x0, symName: __ZNKSt3__16vectorIP11OperatorASTNS_9allocatorIS2_EEE4dataB8ue170006Ev, symObjAddr: 0x86D8, symBinAddr: 0x10001084C, symSize: 0x28 }
  - { offsetInCU: 0x1FFAE, offset: 0x2B06C, size: 0x8, addend: 0x0, symName: __ZNKSt3__16vectorIP11OperatorASTNS_9allocatorIS2_EEE8capacityB8ue170006Ev, symObjAddr: 0x8700, symBinAddr: 0x100010874, symSize: 0x40 }
  - { offsetInCU: 0x1FFD4, offset: 0x2B092, size: 0x8, addend: 0x0, symName: __ZNKSt3__16vectorIP11OperatorASTNS_9allocatorIS2_EEE9__end_capB8ue170006Ev, symObjAddr: 0x8754, symBinAddr: 0x1000108C8, symSize: 0x28 }
  - { offsetInCU: 0x1FFFA, offset: 0x2B0B8, size: 0x8, addend: 0x0, symName: __ZNKSt3__117__compressed_pairIPP11OperatorASTNS_9allocatorIS2_EEE5firstB8ue170006Ev, symObjAddr: 0x877C, symBinAddr: 0x1000108F0, symSize: 0x24 }
  - { offsetInCU: 0x20020, offset: 0x2B0DE, size: 0x8, addend: 0x0, symName: __ZNKSt3__122__compressed_pair_elemIPP11OperatorASTLi0ELb0EE5__getB8ue170006Ev, symObjAddr: 0x87A0, symBinAddr: 0x100010914, symSize: 0x14 }
  - { offsetInCU: 0x2005F, offset: 0x2B11D, size: 0x8, addend: 0x0, symName: __ZNSt3__16vectorIP11OperatorASTNS_9allocatorIS2_EEE21_ConstructTransactionC1B8ue170006ERS5_m, symObjAddr: 0x87B4, symBinAddr: 0x100010928, symSize: 0x3C }
  - { offsetInCU: 0x200A7, offset: 0x2B165, size: 0x8, addend: 0x0, symName: __ZNSt3__16vectorIP11OperatorASTNS_9allocatorIS2_EEE21_ConstructTransactionD1B8ue170006Ev, symObjAddr: 0x8870, symBinAddr: 0x1000109E4, symSize: 0x2C }
  - { offsetInCU: 0x200D1, offset: 0x2B18F, size: 0x8, addend: 0x0, symName: __ZNSt3__16vectorIP11OperatorASTNS_9allocatorIS2_EEE21_ConstructTransactionC2B8ue170006ERS5_m, symObjAddr: 0x889C, symBinAddr: 0x100010A10, symSize: 0x44 }
  - { offsetInCU: 0x20137, offset: 0x2B1F5, size: 0x8, addend: 0x0, symName: __ZNSt3__14pairIPP11OperatorASTS3_EC1B8ue170006IS3_S3_LPv0EEEOT_OT0_, symObjAddr: 0x8A10, symBinAddr: 0x100010B84, symSize: 0x3C }
  - { offsetInCU: 0x20196, offset: 0x2B254, size: 0x8, addend: 0x0, symName: __ZNSt3__14pairIPP11OperatorASTS3_EC2B8ue170006IS3_S3_LPv0EEEOT_OT0_, symObjAddr: 0x8A4C, symBinAddr: 0x100010BC0, symSize: 0x34 }
  - { offsetInCU: 0x201F5, offset: 0x2B2B3, size: 0x8, addend: 0x0, symName: __ZNKSt3__114__copy_trivialclB8ue170006IP11OperatorASTS3_Li0EEENS_4pairIPT_PT0_EES6_S6_S8_, symObjAddr: 0x8BFC, symBinAddr: 0x100010D70, symSize: 0x48 }
  - { offsetInCU: 0x2025D, offset: 0x2B31B, size: 0x8, addend: 0x0, symName: __ZNSt3__14pairIPP11OperatorASTS3_EC1B8ue170006IRS3_S3_LPv0EEEOT_OT0_, symObjAddr: 0x8D8C, symBinAddr: 0x100010F00, symSize: 0x3C }
  - { offsetInCU: 0x202BC, offset: 0x2B37A, size: 0x8, addend: 0x0, symName: __ZNSt3__14pairIPP11OperatorASTS3_EC2B8ue170006IRS3_S3_LPv0EEEOT_OT0_, symObjAddr: 0x8DC8, symBinAddr: 0x100010F3C, symSize: 0x34 }
  - { offsetInCU: 0x2031B, offset: 0x2B3D9, size: 0x8, addend: 0x0, symName: __ZNSt3__118__unwrap_iter_implIPP11OperatorASTLb1EE8__unwrapB8ue170006ES3_, symObjAddr: 0x8DFC, symBinAddr: 0x100010F70, symSize: 0x24 }
  - { offsetInCU: 0x2033E, offset: 0x2B3FC, size: 0x8, addend: 0x0, symName: __ZNSt3__118__unwrap_iter_implIPP11OperatorASTLb1EE8__rewrapB8ue170006ES3_S3_, symObjAddr: 0x8E20, symBinAddr: 0x100010F94, symSize: 0x50 }
  - { offsetInCU: 0x2036F, offset: 0x2B42D, size: 0x8, addend: 0x0, symName: __ZNSt3__16vectorIP11OperatorASTNS_9allocatorIS2_EEE21_ConstructTransactionD2B8ue170006Ev, symObjAddr: 0x8E70, symBinAddr: 0x100010FE4, symSize: 0x20 }
  - { offsetInCU: 0x20399, offset: 0x2B457, size: 0x8, addend: 0x0, symName: __ZNSt3__128__exception_guard_exceptionsINS_6vectorIP11OperatorASTNS_9allocatorIS3_EEE16__destroy_vectorEED2B8ue170006Ev, symObjAddr: 0x8E90, symBinAddr: 0x100011004, symSize: 0x50 }
  - { offsetInCU: 0x203C3, offset: 0x2B481, size: 0x8, addend: 0x0, symName: __ZNSt3__16vectorIP11OperatorASTNS_9allocatorIS2_EEE16__destroy_vectorclB8ue170006Ev, symObjAddr: 0x8EE0, symBinAddr: 0x100011054, symSize: 0x90 }
  - { offsetInCU: 0x203E9, offset: 0x2B4A7, size: 0x8, addend: 0x0, symName: __ZNSt3__16vectorIP11OperatorASTNS_9allocatorIS2_EEE7__clearB8ue170006Ev, symObjAddr: 0x8F70, symBinAddr: 0x1000110E4, symSize: 0x28 }
  - { offsetInCU: 0x2040F, offset: 0x2B4CD, size: 0x8, addend: 0x0, symName: __ZNKSt3__16vectorIP11OperatorASTNS_9allocatorIS2_EEE17__annotate_deleteB8ue170006Ev, symObjAddr: 0x8F98, symBinAddr: 0x10001110C, symSize: 0xB8 }
  - { offsetInCU: 0x20435, offset: 0x2B4F3, size: 0x8, addend: 0x0, symName: __ZNSt3__116allocator_traitsINS_9allocatorIP11OperatorASTEEE10deallocateB8ue170006ERS4_PS3_m, symObjAddr: 0x9050, symBinAddr: 0x1000111C4, symSize: 0x34 }
  - { offsetInCU: 0x20477, offset: 0x2B535, size: 0x8, addend: 0x0, symName: __ZNSt3__16vectorIP11OperatorASTNS_9allocatorIS2_EEE22__base_destruct_at_endB8ue170006EPS2_, symObjAddr: 0x9084, symBinAddr: 0x1000111F8, symSize: 0x8C }
  - { offsetInCU: 0x204BB, offset: 0x2B579, size: 0x8, addend: 0x0, symName: __ZNSt3__116allocator_traitsINS_9allocatorIP11OperatorASTEEE7destroyB8ue170006IS3_vEEvRS4_PT_, symObjAddr: 0x9110, symBinAddr: 0x100011284, symSize: 0x2C }
  - { offsetInCU: 0x204F8, offset: 0x2B5B6, size: 0x8, addend: 0x0, symName: __ZNSt3__19allocatorIP11OperatorASTE7destroyB8ue170006EPS2_, symObjAddr: 0x913C, symBinAddr: 0x1000112B0, symSize: 0x14 }
  - { offsetInCU: 0x2052C, offset: 0x2B5EA, size: 0x8, addend: 0x0, symName: __ZNSt3__19allocatorIP11OperatorASTE10deallocateB8ue170006EPS2_m, symObjAddr: 0x9150, symBinAddr: 0x1000112C4, symSize: 0x40 }
  - { offsetInCU: 0x2056E, offset: 0x2B62C, size: 0x8, addend: 0x0, symName: __ZNSt3__16vectorINS_12basic_stringIcNS_11char_traitsIcEENS_9allocatorIcEEEENS4_IS6_EEED2B8ue170006Ev, symObjAddr: 0x9190, symBinAddr: 0x100011304, symSize: 0x40 }
  - { offsetInCU: 0x20598, offset: 0x2B656, size: 0x8, addend: 0x0, symName: __ZN7FuncASTD2Ev, symObjAddr: 0x91D0, symBinAddr: 0x100011344, symSize: 0xF0 }
  - { offsetInCU: 0x20616, offset: 0x2B6D4, size: 0x8, addend: 0x0, symName: __ZNSt3__16vectorIP11OperatorASTNS_9allocatorIS2_EEE5beginB8ue170006Ev, symObjAddr: 0x92C0, symBinAddr: 0x100011434, symSize: 0x30 }
  - { offsetInCU: 0x2063E, offset: 0x2B6FC, size: 0x8, addend: 0x0, symName: __ZNSt3__16vectorIP11OperatorASTNS_9allocatorIS2_EEE3endB8ue170006Ev, symObjAddr: 0x92F0, symBinAddr: 0x100011464, symSize: 0x30 }
  - { offsetInCU: 0x20666, offset: 0x2B724, size: 0x8, addend: 0x0, symName: __ZNKSt3__111__wrap_iterIPP11OperatorASTEdeB8ue170006Ev, symObjAddr: 0x9354, symBinAddr: 0x1000114C8, symSize: 0x18 }
  - { offsetInCU: 0x2068C, offset: 0x2B74A, size: 0x8, addend: 0x0, symName: __ZNSt3__111__wrap_iterIPP11OperatorASTEppB8ue170006Ev, symObjAddr: 0x936C, symBinAddr: 0x1000114E0, symSize: 0x20 }
  - { offsetInCU: 0x206B2, offset: 0x2B770, size: 0x8, addend: 0x0, symName: __ZNSt3__16vectorIP11OperatorASTNS_9allocatorIS2_EEED1B8ue170006Ev, symObjAddr: 0x938C, symBinAddr: 0x100011500, symSize: 0x2C }
  - { offsetInCU: 0x206DC, offset: 0x2B79A, size: 0x8, addend: 0x0, symName: __ZNSt3__16vectorIP11OperatorASTNS_9allocatorIS2_EEE11__make_iterB8ue170006EPS2_, symObjAddr: 0x93B8, symBinAddr: 0x10001152C, symSize: 0x30 }
  - { offsetInCU: 0x20711, offset: 0x2B7CF, size: 0x8, addend: 0x0, symName: __ZNSt3__111__wrap_iterIPP11OperatorASTEC1B8ue170006ES3_, symObjAddr: 0x93E8, symBinAddr: 0x10001155C, symSize: 0x34 }
  - { offsetInCU: 0x20749, offset: 0x2B807, size: 0x8, addend: 0x0, symName: __ZNSt3__111__wrap_iterIPP11OperatorASTEC2B8ue170006ES3_, symObjAddr: 0x941C, symBinAddr: 0x100011590, symSize: 0x20 }
  - { offsetInCU: 0x20781, offset: 0x2B83F, size: 0x8, addend: 0x0, symName: __ZNKSt3__111__wrap_iterIPP11OperatorASTE4baseB8ue170006Ev, symObjAddr: 0x9484, symBinAddr: 0x1000115F8, symSize: 0x18 }
  - { offsetInCU: 0x207A7, offset: 0x2B865, size: 0x8, addend: 0x0, symName: __ZNSt3__16vectorIP11OperatorASTNS_9allocatorIS2_EEED2B8ue170006Ev, symObjAddr: 0x949C, symBinAddr: 0x100011610, symSize: 0x40 }
  - { offsetInCU: 0x207D1, offset: 0x2B88F, size: 0x8, addend: 0x0, symName: __ZN18AssignStatementASTC2ENSt3__112basic_stringIcNS0_11char_traitsIcEENS0_9allocatorIcEEEEP7ExprAST, symObjAddr: 0x94DC, symBinAddr: 0x100011650, symSize: 0x90 }
  - { offsetInCU: 0x20818, offset: 0x2B8D6, size: 0x8, addend: 0x0, symName: __ZN11OperatorASTC2Ev, symObjAddr: 0x956C, symBinAddr: 0x1000116E0, symSize: 0x24 }
  - { offsetInCU: 0x20844, offset: 0x2B902, size: 0x8, addend: 0x0, symName: __ZN11OperatorASTD2Ev, symObjAddr: 0x9590, symBinAddr: 0x100011704, symSize: 0x14 }
  - { offsetInCU: 0x2086E, offset: 0x2B92C, size: 0x8, addend: 0x0, symName: __ZN18AssignStatementASTD1Ev, symObjAddr: 0x95A4, symBinAddr: 0x100011718, symSize: 0x2C }
  - { offsetInCU: 0x20898, offset: 0x2B956, size: 0x8, addend: 0x0, symName: __ZN18AssignStatementASTD0Ev, symObjAddr: 0x95D0, symBinAddr: 0x100011744, symSize: 0x30 }
  - { offsetInCU: 0x208C2, offset: 0x2B980, size: 0x8, addend: 0x0, symName: __ZN11OperatorASTD1Ev, symObjAddr: 0x9600, symBinAddr: 0x100011774, symSize: 0x2C }
  - { offsetInCU: 0x208EC, offset: 0x2B9AA, size: 0x8, addend: 0x0, symName: __ZN11OperatorASTD0Ev, symObjAddr: 0x962C, symBinAddr: 0x1000117A0, symSize: 0x30 }
  - { offsetInCU: 0x20916, offset: 0x2B9D4, size: 0x8, addend: 0x0, symName: __ZN18AssignStatementASTD2Ev, symObjAddr: 0x965C, symBinAddr: 0x1000117D0, symSize: 0x80 }
  - { offsetInCU: 0x20940, offset: 0x2B9FE, size: 0x8, addend: 0x0, symName: __ZN18ReturnStatementASTC2EP7ExprAST, symObjAddr: 0x96DC, symBinAddr: 0x100011850, symSize: 0x50 }
  - { offsetInCU: 0x20978, offset: 0x2BA36, size: 0x8, addend: 0x0, symName: __ZN18ReturnStatementASTD1Ev, symObjAddr: 0x972C, symBinAddr: 0x1000118A0, symSize: 0x2C }
  - { offsetInCU: 0x209A2, offset: 0x2BA60, size: 0x8, addend: 0x0, symName: __ZN18ReturnStatementASTD0Ev, symObjAddr: 0x9758, symBinAddr: 0x1000118CC, symSize: 0x30 }
  - { offsetInCU: 0x209CC, offset: 0x2BA8A, size: 0x8, addend: 0x0, symName: __ZN18ReturnStatementASTD2Ev, symObjAddr: 0x9788, symBinAddr: 0x1000118FC, symSize: 0x74 }
  - { offsetInCU: 0x209F6, offset: 0x2BAB4, size: 0x8, addend: 0x0, symName: __ZN16ExprStatementASTC2EP7ExprAST, symObjAddr: 0x97FC, symBinAddr: 0x100011970, symSize: 0x50 }
  - { offsetInCU: 0x20A2E, offset: 0x2BAEC, size: 0x8, addend: 0x0, symName: __ZN16ExprStatementASTD1Ev, symObjAddr: 0x984C, symBinAddr: 0x1000119C0, symSize: 0x2C }
  - { offsetInCU: 0x20A58, offset: 0x2BB16, size: 0x8, addend: 0x0, symName: __ZN16ExprStatementASTD0Ev, symObjAddr: 0x9878, symBinAddr: 0x1000119EC, symSize: 0x30 }
  - { offsetInCU: 0x20A82, offset: 0x2BB40, size: 0x8, addend: 0x0, symName: __ZN16ExprStatementASTD2Ev, symObjAddr: 0x98A8, symBinAddr: 0x100011A1C, symSize: 0x74 }
  - { offsetInCU: 0x20AAC, offset: 0x2BB6A, size: 0x8, addend: 0x0, symName: __ZN7ExprASTC2Ev, symObjAddr: 0x991C, symBinAddr: 0x100011A90, symSize: 0x38 }
  - { offsetInCU: 0x20AD8, offset: 0x2BB96, size: 0x8, addend: 0x0, symName: __ZNSt3__16vectorIP7TermASTNS_9allocatorIS2_EEEC1B8ue170006Ev, symObjAddr: 0x9954, symBinAddr: 0x100011AC8, symSize: 0x2C }
  - { offsetInCU: 0x20B02, offset: 0x2BBC0, size: 0x8, addend: 0x0, symName: __ZNSt3__16vectorIcNS_9allocatorIcEEEC1B8ue170006Ev, symObjAddr: 0x9980, symBinAddr: 0x100011AF4, symSize: 0x2C }
  - { offsetInCU: 0x20B2C, offset: 0x2BBEA, size: 0x8, addend: 0x0, symName: __ZNSt3__16vectorIP7TermASTNS_9allocatorIS2_EEEC2B8ue170006Ev, symObjAddr: 0x99AC, symBinAddr: 0x100011B20, symSize: 0x4C }
  - { offsetInCU: 0x20B5B, offset: 0x2BC19, size: 0x8, addend: 0x0, symName: __ZNSt3__117__compressed_pairIPP7TermASTNS_9allocatorIS2_EEEC1B8ue170006IDnNS_18__default_init_tagEEEOT_OT0_, symObjAddr: 0x99F8, symBinAddr: 0x100011B6C, symSize: 0x3C }
  - { offsetInCU: 0x20BB3, offset: 0x2BC71, size: 0x8, addend: 0x0, symName: __ZNSt3__117__compressed_pairIPP7TermASTNS_9allocatorIS2_EEEC2B8ue170006IDnNS_18__default_init_tagEEEOT_OT0_, symObjAddr: 0x9A34, symBinAddr: 0x100011BA8, symSize: 0x40 }
  - { offsetInCU: 0x20C0B, offset: 0x2BCC9, size: 0x8, addend: 0x0, symName: __ZNSt3__122__compressed_pair_elemIPP7TermASTLi0ELb0EEC2B8ue170006IDnvEEOT_, symObjAddr: 0x9A74, symBinAddr: 0x100011BE8, symSize: 0x1C }
  - { offsetInCU: 0x20C4D, offset: 0x2BD0B, size: 0x8, addend: 0x0, symName: __ZNSt3__122__compressed_pair_elemINS_9allocatorIP7TermASTEELi1ELb1EEC2B8ue170006ENS_18__default_init_tagE, symObjAddr: 0x9A90, symBinAddr: 0x100011C04, symSize: 0x2C }
  - { offsetInCU: 0x20C81, offset: 0x2BD3F, size: 0x8, addend: 0x0, symName: __ZNSt3__19allocatorIP7TermASTEC2B8ue170006Ev, symObjAddr: 0x9ABC, symBinAddr: 0x100011C30, symSize: 0x2C }
  - { offsetInCU: 0x20CAB, offset: 0x2BD69, size: 0x8, addend: 0x0, symName: __ZNSt3__116__non_trivial_ifILb1ENS_9allocatorIP7TermASTEEEC2B8ue170006Ev, symObjAddr: 0x9AE8, symBinAddr: 0x100011C5C, symSize: 0x14 }
  - { offsetInCU: 0x20CD5, offset: 0x2BD93, size: 0x8, addend: 0x0, symName: __ZNSt3__16vectorIcNS_9allocatorIcEEEC2B8ue170006Ev, symObjAddr: 0x9AFC, symBinAddr: 0x100011C70, symSize: 0x4C }
  - { offsetInCU: 0x20CFF, offset: 0x2BDBD, size: 0x8, addend: 0x0, symName: __ZNSt3__117__compressed_pairIPcNS_9allocatorIcEEEC1B8ue170006IDnNS_18__default_init_tagEEEOT_OT0_, symObjAddr: 0x9B48, symBinAddr: 0x100011CBC, symSize: 0x3C }
  - { offsetInCU: 0x20D57, offset: 0x2BE15, size: 0x8, addend: 0x0, symName: __ZNSt3__117__compressed_pairIPcNS_9allocatorIcEEEC2B8ue170006IDnNS_18__default_init_tagEEEOT_OT0_, symObjAddr: 0x9B84, symBinAddr: 0x100011CF8, symSize: 0x40 }
  - { offsetInCU: 0x20DAF, offset: 0x2BE6D, size: 0x8, addend: 0x0, symName: __ZNSt3__122__compressed_pair_elemIPcLi0ELb0EEC2B8ue170006IDnvEEOT_, symObjAddr: 0x9BC4, symBinAddr: 0x100011D38, symSize: 0x1C }
  - { offsetInCU: 0x20DF1, offset: 0x2BEAF, size: 0x8, addend: 0x0, symName: __ZN7TermASTC2Ev, symObjAddr: 0x9C4C, symBinAddr: 0x100011D54, symSize: 0x38 }
  - { offsetInCU: 0x20E1D, offset: 0x2BEDB, size: 0x8, addend: 0x0, symName: __ZNSt3__16vectorIP9FactorASTNS_9allocatorIS2_EEEC1B8ue170006Ev, symObjAddr: 0x9C84, symBinAddr: 0x100011D8C, symSize: 0x2C }
  - { offsetInCU: 0x20E47, offset: 0x2BF05, size: 0x8, addend: 0x0, symName: __ZNSt3__16vectorIP9FactorASTNS_9allocatorIS2_EEEC2B8ue170006Ev, symObjAddr: 0x9CB0, symBinAddr: 0x100011DB8, symSize: 0x4C }
  - { offsetInCU: 0x20E71, offset: 0x2BF2F, size: 0x8, addend: 0x0, symName: __ZNSt3__117__compressed_pairIPP9FactorASTNS_9allocatorIS2_EEEC1B8ue170006IDnNS_18__default_init_tagEEEOT_OT0_, symObjAddr: 0x9CFC, symBinAddr: 0x100011E04, symSize: 0x3C }
  - { offsetInCU: 0x20EC9, offset: 0x2BF87, size: 0x8, addend: 0x0, symName: __ZNSt3__117__compressed_pairIPP9FactorASTNS_9allocatorIS2_EEEC2B8ue170006IDnNS_18__default_init_tagEEEOT_OT0_, symObjAddr: 0x9D38, symBinAddr: 0x100011E40, symSize: 0x40 }
  - { offsetInCU: 0x20F21, offset: 0x2BFDF, size: 0x8, addend: 0x0, symName: __ZNSt3__122__compressed_pair_elemIPP9FactorASTLi0ELb0EEC2B8ue170006IDnvEEOT_, symObjAddr: 0x9D78, symBinAddr: 0x100011E80, symSize: 0x1C }
  - { offsetInCU: 0x20F63, offset: 0x2C021, size: 0x8, addend: 0x0, symName: __ZNSt3__122__compressed_pair_elemINS_9allocatorIP9FactorASTEELi1ELb1EEC2B8ue170006ENS_18__default_init_tagE, symObjAddr: 0x9D94, symBinAddr: 0x100011E9C, symSize: 0x2C }
  - { offsetInCU: 0x20F97, offset: 0x2C055, size: 0x8, addend: 0x0, symName: __ZNSt3__19allocatorIP9FactorASTEC2B8ue170006Ev, symObjAddr: 0x9DC0, symBinAddr: 0x100011EC8, symSize: 0x2C }
  - { offsetInCU: 0x20FC1, offset: 0x2C07F, size: 0x8, addend: 0x0, symName: __ZNSt3__116__non_trivial_ifILb1ENS_9allocatorIP9FactorASTEEEC2B8ue170006Ev, symObjAddr: 0x9DEC, symBinAddr: 0x100011EF4, symSize: 0x14 }
  - { offsetInCU: 0x20FEB, offset: 0x2C0A9, size: 0x8, addend: 0x0, symName: __ZN9FactorASTC2EcP4PAST, symObjAddr: 0x9E00, symBinAddr: 0x100011F08, symSize: 0x2C }
  - { offsetInCU: 0x21031, offset: 0x2C0EF, size: 0x8, addend: 0x0, symName: __ZN8IdentASTC2ENSt3__112basic_stringIcNS0_11char_traitsIcEENS0_9allocatorIcEEEE, symObjAddr: 0x9E2C, symBinAddr: 0x100011F34, symSize: 0x84 }
  - { offsetInCU: 0x2106A, offset: 0x2C128, size: 0x8, addend: 0x0, symName: __ZN4PASTC2Ev, symObjAddr: 0x9EB0, symBinAddr: 0x100011FB8, symSize: 0x24 }
  - { offsetInCU: 0x21096, offset: 0x2C154, size: 0x8, addend: 0x0, symName: __ZN4PASTD2Ev, symObjAddr: 0x9ED4, symBinAddr: 0x100011FDC, symSize: 0x14 }
  - { offsetInCU: 0x210C0, offset: 0x2C17E, size: 0x8, addend: 0x0, symName: __ZN8IdentASTD1Ev, symObjAddr: 0x9EE8, symBinAddr: 0x100011FF0, symSize: 0x2C }
  - { offsetInCU: 0x210EC, offset: 0x2C1AA, size: 0x8, addend: 0x0, symName: __ZN8IdentASTD0Ev, symObjAddr: 0x9F14, symBinAddr: 0x10001201C, symSize: 0x30 }
  - { offsetInCU: 0x21118, offset: 0x2C1D6, size: 0x8, addend: 0x0, symName: __ZN4PASTD1Ev, symObjAddr: 0x9F44, symBinAddr: 0x10001204C, symSize: 0x2C }
  - { offsetInCU: 0x21142, offset: 0x2C200, size: 0x8, addend: 0x0, symName: __ZN4PASTD0Ev, symObjAddr: 0x9F70, symBinAddr: 0x100012078, symSize: 0x30 }
  - { offsetInCU: 0x2116C, offset: 0x2C22A, size: 0x8, addend: 0x0, symName: __ZN8IdentASTD2Ev, symObjAddr: 0x9FA0, symBinAddr: 0x1000120A8, symSize: 0x48 }
  - { offsetInCU: 0x21198, offset: 0x2C256, size: 0x8, addend: 0x0, symName: __ZN9NumberASTC2Ei, symObjAddr: 0x9FE8, symBinAddr: 0x1000120F0, symSize: 0x50 }
  - { offsetInCU: 0x211D0, offset: 0x2C28E, size: 0x8, addend: 0x0, symName: __ZN9NumberASTD1Ev, symObjAddr: 0xA038, symBinAddr: 0x100012140, symSize: 0x2C }
  - { offsetInCU: 0x211FC, offset: 0x2C2BA, size: 0x8, addend: 0x0, symName: __ZN9NumberASTD0Ev, symObjAddr: 0xA064, symBinAddr: 0x10001216C, symSize: 0x30 }
  - { offsetInCU: 0x21228, offset: 0x2C2E6, size: 0x8, addend: 0x0, symName: __ZN9NumberASTD2Ev, symObjAddr: 0xA094, symBinAddr: 0x10001219C, symSize: 0x2C }
  - { offsetInCU: 0x21254, offset: 0x2C312, size: 0x8, addend: 0x0, symName: __ZN8FCallASTC2ENSt3__112basic_stringIcNS0_11char_traitsIcEENS0_9allocatorIcEEEE, symObjAddr: 0xA0C0, symBinAddr: 0x1000121C8, symSize: 0x84 }
  - { offsetInCU: 0x2128D, offset: 0x2C34B, size: 0x8, addend: 0x0, symName: __ZN8FCallASTD1Ev, symObjAddr: 0xA144, symBinAddr: 0x10001224C, symSize: 0x2C }
  - { offsetInCU: 0x212B9, offset: 0x2C377, size: 0x8, addend: 0x0, symName: __ZN8FCallASTD0Ev, symObjAddr: 0xA170, symBinAddr: 0x100012278, symSize: 0x30 }
  - { offsetInCU: 0x212E5, offset: 0x2C3A3, size: 0x8, addend: 0x0, symName: __ZN8FCallASTD2Ev, symObjAddr: 0xA1A0, symBinAddr: 0x1000122A8, symSize: 0x48 }
  - { offsetInCU: 0x21311, offset: 0x2C3CF, size: 0x8, addend: 0x0, symName: __ZN12InnerExprASTC2EP7ExprAST, symObjAddr: 0xA1E8, symBinAddr: 0x1000122F0, symSize: 0x50 }
  - { offsetInCU: 0x21349, offset: 0x2C407, size: 0x8, addend: 0x0, symName: __ZN12InnerExprASTD1Ev, symObjAddr: 0xA238, symBinAddr: 0x100012340, symSize: 0x2C }
  - { offsetInCU: 0x21373, offset: 0x2C431, size: 0x8, addend: 0x0, symName: __ZN12InnerExprASTD0Ev, symObjAddr: 0xA264, symBinAddr: 0x10001236C, symSize: 0x30 }
  - { offsetInCU: 0x2139D, offset: 0x2C45B, size: 0x8, addend: 0x0, symName: __ZN12InnerExprASTD2Ev, symObjAddr: 0xA294, symBinAddr: 0x10001239C, symSize: 0x74 }
  - { offsetInCU: 0x213C7, offset: 0x2C485, size: 0x8, addend: 0x0, symName: __ZN2yy6parser11symbol_typeD2Ev, symObjAddr: 0xA308, symBinAddr: 0x100012410, symSize: 0x2C }
  - { offsetInCU: 0x213F4, offset: 0x2C4B2, size: 0x8, addend: 0x0, symName: __ZN2yy6parser12basic_symbolINS0_7by_kindEED2Ev, symObjAddr: 0xA334, symBinAddr: 0x10001243C, symSize: 0x2C }
  - { offsetInCU: 0x2141E, offset: 0x2C4DC, size: 0x8, addend: 0x0, symName: __ZN2yy6parser5stackINS0_17stack_symbol_typeENSt3__16vectorIS2_NS3_9allocatorIS2_EEEEEC2Em, symObjAddr: 0xA360, symBinAddr: 0x100012468, symSize: 0x3C }
  - { offsetInCU: 0x21457, offset: 0x2C515, size: 0x8, addend: 0x0, symName: __ZNSt3__16vectorIN2yy6parser17stack_symbol_typeENS_9allocatorIS3_EEEC1Em, symObjAddr: 0xA39C, symBinAddr: 0x1000124A4, symSize: 0x34 }
  - { offsetInCU: 0x21492, offset: 0x2C550, size: 0x8, addend: 0x0, symName: __ZNSt3__16vectorIN2yy6parser17stack_symbol_typeENS_9allocatorIS3_EEEC2Em, symObjAddr: 0xA3D0, symBinAddr: 0x1000124D8, symSize: 0xD4 }
  - { offsetInCU: 0x214E2, offset: 0x2C5A0, size: 0x8, addend: 0x0, symName: __ZNSt3__117__compressed_pairIPN2yy6parser17stack_symbol_typeENS_9allocatorIS3_EEEC1B8ue170006IDnNS_18__default_init_tagEEEOT_OT0_, symObjAddr: 0xA4A4, symBinAddr: 0x1000125AC, symSize: 0x3C }
  - { offsetInCU: 0x2153A, offset: 0x2C5F8, size: 0x8, addend: 0x0, symName: __ZNSt3__16vectorIN2yy6parser17stack_symbol_typeENS_9allocatorIS3_EEE11__vallocateB8ue170006Em, symObjAddr: 0xA520, symBinAddr: 0x100012628, symSize: 0xB4 }
  - { offsetInCU: 0x2157E, offset: 0x2C63C, size: 0x8, addend: 0x0, symName: __ZNSt3__16vectorIN2yy6parser17stack_symbol_typeENS_9allocatorIS3_EEE18__construct_at_endEm, symObjAddr: 0xA5D4, symBinAddr: 0x1000126DC, symSize: 0xC8 }
  - { offsetInCU: 0x215F1, offset: 0x2C6AF, size: 0x8, addend: 0x0, symName: __ZNSt3__128__exception_guard_exceptionsINS_6vectorIN2yy6parser17stack_symbol_typeENS_9allocatorIS4_EEE16__destroy_vectorEE10__completeB8ue170006Ev, symObjAddr: 0xA69C, symBinAddr: 0x1000127A4, symSize: 0x1C }
  - { offsetInCU: 0x21617, offset: 0x2C6D5, size: 0x8, addend: 0x0, symName: __ZNSt3__128__exception_guard_exceptionsINS_6vectorIN2yy6parser17stack_symbol_typeENS_9allocatorIS4_EEE16__destroy_vectorEED1B8ue170006Ev, symObjAddr: 0xA6B8, symBinAddr: 0x1000127C0, symSize: 0x2C }
  - { offsetInCU: 0x21641, offset: 0x2C6FF, size: 0x8, addend: 0x0, symName: __ZNSt3__117__compressed_pairIPN2yy6parser17stack_symbol_typeENS_9allocatorIS3_EEEC2B8ue170006IDnNS_18__default_init_tagEEEOT_OT0_, symObjAddr: 0xA6E4, symBinAddr: 0x1000127EC, symSize: 0x40 }
  - { offsetInCU: 0x21699, offset: 0x2C757, size: 0x8, addend: 0x0, symName: __ZNSt3__122__compressed_pair_elemIPN2yy6parser17stack_symbol_typeELi0ELb0EEC2B8ue170006IDnvEEOT_, symObjAddr: 0xA724, symBinAddr: 0x10001282C, symSize: 0x1C }
  - { offsetInCU: 0x216DB, offset: 0x2C799, size: 0x8, addend: 0x0, symName: __ZNSt3__122__compressed_pair_elemINS_9allocatorIN2yy6parser17stack_symbol_typeEEELi1ELb1EEC2B8ue170006ENS_18__default_init_tagE, symObjAddr: 0xA740, symBinAddr: 0x100012848, symSize: 0x2C }
  - { offsetInCU: 0x2170F, offset: 0x2C7CD, size: 0x8, addend: 0x0, symName: __ZNSt3__19allocatorIN2yy6parser17stack_symbol_typeEEC2B8ue170006Ev, symObjAddr: 0xA76C, symBinAddr: 0x100012874, symSize: 0x2C }
  - { offsetInCU: 0x21739, offset: 0x2C7F7, size: 0x8, addend: 0x0, symName: __ZNSt3__116__non_trivial_ifILb1ENS_9allocatorIN2yy6parser17stack_symbol_typeEEEEC2B8ue170006Ev, symObjAddr: 0xA798, symBinAddr: 0x1000128A0, symSize: 0x14 }
  - { offsetInCU: 0x21763, offset: 0x2C821, size: 0x8, addend: 0x0, symName: __ZNSt3__128__exception_guard_exceptionsINS_6vectorIN2yy6parser17stack_symbol_typeENS_9allocatorIS4_EEE16__destroy_vectorEEC1B8ue170006ES8_, symObjAddr: 0xA7AC, symBinAddr: 0x1000128B4, symSize: 0x34 }
  - { offsetInCU: 0x2179B, offset: 0x2C859, size: 0x8, addend: 0x0, symName: __ZNSt3__128__exception_guard_exceptionsINS_6vectorIN2yy6parser17stack_symbol_typeENS_9allocatorIS4_EEE16__destroy_vectorEEC2B8ue170006ES8_, symObjAddr: 0xA7E0, symBinAddr: 0x1000128E8, symSize: 0x24 }
  - { offsetInCU: 0x217D3, offset: 0x2C891, size: 0x8, addend: 0x0, symName: __ZNKSt3__16vectorIN2yy6parser17stack_symbol_typeENS_9allocatorIS3_EEE8max_sizeEv, symObjAddr: 0xA804, symBinAddr: 0x10001290C, symSize: 0x60 }
  - { offsetInCU: 0x217FB, offset: 0x2C8B9, size: 0x8, addend: 0x0, symName: __ZNKSt3__16vectorIN2yy6parser17stack_symbol_typeENS_9allocatorIS3_EEE20__throw_length_errorB8ue170006Ev, symObjAddr: 0xA864, symBinAddr: 0x10001296C, symSize: 0x1C }
  - { offsetInCU: 0x21821, offset: 0x2C8DF, size: 0x8, addend: 0x0, symName: __ZNSt3__16vectorIN2yy6parser17stack_symbol_typeENS_9allocatorIS3_EEE9__end_capB8ue170006Ev, symObjAddr: 0xA8C0, symBinAddr: 0x1000129C8, symSize: 0x28 }
  - { offsetInCU: 0x21847, offset: 0x2C905, size: 0x8, addend: 0x0, symName: __ZNKSt3__16vectorIN2yy6parser17stack_symbol_typeENS_9allocatorIS3_EEE14__annotate_newB8ue170006Em, symObjAddr: 0xA8E8, symBinAddr: 0x1000129F0, symSize: 0xC8 }
  - { offsetInCU: 0x21886, offset: 0x2C944, size: 0x8, addend: 0x0, symName: __ZNSt3__116allocator_traitsINS_9allocatorIN2yy6parser17stack_symbol_typeEEEE8max_sizeB8ue170006IS5_vEEmRKS5_, symObjAddr: 0xA9B0, symBinAddr: 0x100012AB8, symSize: 0x24 }
  - { offsetInCU: 0x218B4, offset: 0x2C972, size: 0x8, addend: 0x0, symName: __ZNKSt3__16vectorIN2yy6parser17stack_symbol_typeENS_9allocatorIS3_EEE7__allocB8ue170006Ev, symObjAddr: 0xA9D4, symBinAddr: 0x100012ADC, symSize: 0x28 }
  - { offsetInCU: 0x218DA, offset: 0x2C998, size: 0x8, addend: 0x0, symName: __ZNKSt3__19allocatorIN2yy6parser17stack_symbol_typeEE8max_sizeB8ue170006Ev, symObjAddr: 0xA9FC, symBinAddr: 0x100012B04, symSize: 0x18 }
  - { offsetInCU: 0x21900, offset: 0x2C9BE, size: 0x8, addend: 0x0, symName: __ZNKSt3__117__compressed_pairIPN2yy6parser17stack_symbol_typeENS_9allocatorIS3_EEE6secondB8ue170006Ev, symObjAddr: 0xAA14, symBinAddr: 0x100012B1C, symSize: 0x24 }
  - { offsetInCU: 0x21926, offset: 0x2C9E4, size: 0x8, addend: 0x0, symName: __ZNKSt3__122__compressed_pair_elemINS_9allocatorIN2yy6parser17stack_symbol_typeEEELi1ELb1EE5__getB8ue170006Ev, symObjAddr: 0xAA38, symBinAddr: 0x100012B40, symSize: 0x14 }
  - { offsetInCU: 0x2194C, offset: 0x2CA0A, size: 0x8, addend: 0x0, symName: __ZNSt3__19allocatorIN2yy6parser17stack_symbol_typeEE8allocateB8ue170006Em, symObjAddr: 0xAA4C, symBinAddr: 0x100012B54, symSize: 0x5C }
  - { offsetInCU: 0x21980, offset: 0x2CA3E, size: 0x8, addend: 0x0, symName: __ZNSt3__117__compressed_pairIPN2yy6parser17stack_symbol_typeENS_9allocatorIS3_EEE5firstB8ue170006Ev, symObjAddr: 0xAAA8, symBinAddr: 0x100012BB0, symSize: 0x24 }
  - { offsetInCU: 0x219A6, offset: 0x2CA64, size: 0x8, addend: 0x0, symName: __ZNSt3__122__compressed_pair_elemIPN2yy6parser17stack_symbol_typeELi0ELb0EE5__getB8ue170006Ev, symObjAddr: 0xAACC, symBinAddr: 0x100012BD4, symSize: 0x14 }
  - { offsetInCU: 0x219E5, offset: 0x2CAA3, size: 0x8, addend: 0x0, symName: __ZNSt3__16vectorIN2yy6parser17stack_symbol_typeENS_9allocatorIS3_EEE21_ConstructTransactionC1B8ue170006ERS6_m, symObjAddr: 0xAAE0, symBinAddr: 0x100012BE8, symSize: 0x3C }
  - { offsetInCU: 0x21A2D, offset: 0x2CAEB, size: 0x8, addend: 0x0, symName: __ZNSt3__116allocator_traitsINS_9allocatorIN2yy6parser17stack_symbol_typeEEEE9constructB8ue170006IS4_JEvEEvRS5_PT_DpOT0_, symObjAddr: 0xAB1C, symBinAddr: 0x100012C24, symSize: 0x2C }
  - { offsetInCU: 0x21A70, offset: 0x2CB2E, size: 0x8, addend: 0x0, symName: __ZNSt3__16vectorIN2yy6parser17stack_symbol_typeENS_9allocatorIS3_EEE21_ConstructTransactionD1B8ue170006Ev, symObjAddr: 0xAB48, symBinAddr: 0x100012C50, symSize: 0x2C }
  - { offsetInCU: 0x21A9A, offset: 0x2CB58, size: 0x8, addend: 0x0, symName: __ZNSt3__16vectorIN2yy6parser17stack_symbol_typeENS_9allocatorIS3_EEE21_ConstructTransactionC2B8ue170006ERS6_m, symObjAddr: 0xAB74, symBinAddr: 0x100012C7C, symSize: 0x4C }
  - { offsetInCU: 0x21AE2, offset: 0x2CBA0, size: 0x8, addend: 0x0, symName: __ZNSt3__19allocatorIN2yy6parser17stack_symbol_typeEE9constructB8ue170006IS3_JEEEvPT_DpOT0_, symObjAddr: 0xABC0, symBinAddr: 0x100012CC8, symSize: 0x28 }
  - { offsetInCU: 0x21B25, offset: 0x2CBE3, size: 0x8, addend: 0x0, symName: __ZNSt3__16vectorIN2yy6parser17stack_symbol_typeENS_9allocatorIS3_EEE21_ConstructTransactionD2B8ue170006Ev, symObjAddr: 0xABE8, symBinAddr: 0x100012CF0, symSize: 0x20 }
  - { offsetInCU: 0x21B4F, offset: 0x2CC0D, size: 0x8, addend: 0x0, symName: __ZNSt3__128__exception_guard_exceptionsINS_6vectorIN2yy6parser17stack_symbol_typeENS_9allocatorIS4_EEE16__destroy_vectorEED2B8ue170006Ev, symObjAddr: 0xAC08, symBinAddr: 0x100012D10, symSize: 0x48 }
  - { offsetInCU: 0x21B79, offset: 0x2CC37, size: 0x8, addend: 0x0, symName: __ZNSt3__16vectorIN2yy6parser17stack_symbol_typeENS_9allocatorIS3_EEE9push_backB8ue170006EOS3_, symObjAddr: 0xAC50, symBinAddr: 0x100012D58, symSize: 0x6C }
  - { offsetInCU: 0x21BB0, offset: 0x2CC6E, size: 0x8, addend: 0x0, symName: __ZN2yy6parser12basic_symbolINS0_8by_stateEE4moveERS3_, symObjAddr: 0xACBC, symBinAddr: 0x100012DC4, symSize: 0x54 }
  - { offsetInCU: 0x21BE7, offset: 0x2CCA5, size: 0x8, addend: 0x0, symName: __ZNSt3__16vectorIN2yy6parser17stack_symbol_typeENS_9allocatorIS3_EEE22__construct_one_at_endB8ue170006IJS3_EEEvDpOT_, symObjAddr: 0xAD10, symBinAddr: 0x100012E18, symSize: 0x90 }
  - { offsetInCU: 0x21C36, offset: 0x2CCF4, size: 0x8, addend: 0x0, symName: __ZNSt3__16vectorIN2yy6parser17stack_symbol_typeENS_9allocatorIS3_EEE21__push_back_slow_pathIS3_EEvOT_, symObjAddr: 0xADA0, symBinAddr: 0x100012EA8, symSize: 0xD8 }
  - { offsetInCU: 0x21C94, offset: 0x2CD52, size: 0x8, addend: 0x0, symName: __ZNSt3__116allocator_traitsINS_9allocatorIN2yy6parser17stack_symbol_typeEEEE9constructB8ue170006IS4_JS4_EvEEvRS5_PT_DpOT0_, symObjAddr: 0xAE78, symBinAddr: 0x100012F80, symSize: 0x34 }
  - { offsetInCU: 0x21CEB, offset: 0x2CDA9, size: 0x8, addend: 0x0, symName: __ZNSt3__19allocatorIN2yy6parser17stack_symbol_typeEE9constructB8ue170006IS3_JS3_EEEvPT_DpOT0_, symObjAddr: 0xAEAC, symBinAddr: 0x100012FB4, symSize: 0x30 }
  - { offsetInCU: 0x21D41, offset: 0x2CDFF, size: 0x8, addend: 0x0, symName: __ZNKSt3__16vectorIN2yy6parser17stack_symbol_typeENS_9allocatorIS3_EEE11__recommendB8ue170006Em, symObjAddr: 0xAEDC, symBinAddr: 0x100012FE4, symSize: 0xB4 }
  - { offsetInCU: 0x21D96, offset: 0x2CE54, size: 0x8, addend: 0x0, symName: __ZNSt3__114__split_bufferIN2yy6parser17stack_symbol_typeERNS_9allocatorIS3_EEEC1EmmS6_, symObjAddr: 0xAF90, symBinAddr: 0x100013098, symSize: 0x44 }
  - { offsetInCU: 0x21DEC, offset: 0x2CEAA, size: 0x8, addend: 0x0, symName: __ZNSt3__114__split_bufferIN2yy6parser17stack_symbol_typeERNS_9allocatorIS3_EEED1Ev, symObjAddr: 0xB0E4, symBinAddr: 0x1000131EC, symSize: 0x2C }
  - { offsetInCU: 0x21E18, offset: 0x2CED6, size: 0x8, addend: 0x0, symName: __ZNSt3__114__split_bufferIN2yy6parser17stack_symbol_typeERNS_9allocatorIS3_EEEC2EmmS6_, symObjAddr: 0xB190, symBinAddr: 0x100013298, symSize: 0xE0 }
  - { offsetInCU: 0x21E8C, offset: 0x2CF4A, size: 0x8, addend: 0x0, symName: __ZNSt3__117__compressed_pairIPN2yy6parser17stack_symbol_typeERNS_9allocatorIS3_EEEC1B8ue170006IDnS7_EEOT_OT0_, symObjAddr: 0xB270, symBinAddr: 0x100013378, symSize: 0x3C }
  - { offsetInCU: 0x21EE4, offset: 0x2CFA2, size: 0x8, addend: 0x0, symName: __ZNSt3__114__split_bufferIN2yy6parser17stack_symbol_typeERNS_9allocatorIS3_EEE7__allocB8ue170006Ev, symObjAddr: 0xB2AC, symBinAddr: 0x1000133B4, symSize: 0x28 }
  - { offsetInCU: 0x21F0A, offset: 0x2CFC8, size: 0x8, addend: 0x0, symName: __ZNSt3__114__split_bufferIN2yy6parser17stack_symbol_typeERNS_9allocatorIS3_EEE9__end_capB8ue170006Ev, symObjAddr: 0xB2D4, symBinAddr: 0x1000133DC, symSize: 0x28 }
  - { offsetInCU: 0x21F30, offset: 0x2CFEE, size: 0x8, addend: 0x0, symName: __ZNSt3__117__compressed_pairIPN2yy6parser17stack_symbol_typeERNS_9allocatorIS3_EEEC2B8ue170006IDnS7_EEOT_OT0_, symObjAddr: 0xB2FC, symBinAddr: 0x100013404, symSize: 0x48 }
  - { offsetInCU: 0x21F88, offset: 0x2D046, size: 0x8, addend: 0x0, symName: __ZNSt3__122__compressed_pair_elemIRNS_9allocatorIN2yy6parser17stack_symbol_typeEEELi1ELb0EEC2B8ue170006IS6_vEEOT_, symObjAddr: 0xB344, symBinAddr: 0x10001344C, symSize: 0x20 }
  - { offsetInCU: 0x21FCA, offset: 0x2D088, size: 0x8, addend: 0x0, symName: __ZNSt3__117__compressed_pairIPN2yy6parser17stack_symbol_typeERNS_9allocatorIS3_EEE6secondB8ue170006Ev, symObjAddr: 0xB364, symBinAddr: 0x10001346C, symSize: 0x28 }
  - { offsetInCU: 0x21FF0, offset: 0x2D0AE, size: 0x8, addend: 0x0, symName: __ZNSt3__122__compressed_pair_elemIRNS_9allocatorIN2yy6parser17stack_symbol_typeEEELi1ELb0EE5__getB8ue170006Ev, symObjAddr: 0xB38C, symBinAddr: 0x100013494, symSize: 0x18 }
  - { offsetInCU: 0x22016, offset: 0x2D0D4, size: 0x8, addend: 0x0, symName: __ZNSt3__117__compressed_pairIPN2yy6parser17stack_symbol_typeERNS_9allocatorIS3_EEE5firstB8ue170006Ev, symObjAddr: 0xB3A4, symBinAddr: 0x1000134AC, symSize: 0x24 }
  - { offsetInCU: 0x2203C, offset: 0x2D0FA, size: 0x8, addend: 0x0, symName: __ZNSt3__116reverse_iteratorIPN2yy6parser17stack_symbol_typeEEC1B8ue170006ES4_, symObjAddr: 0xB4F4, symBinAddr: 0x1000135FC, symSize: 0x34 }
  - { offsetInCU: 0x22074, offset: 0x2D132, size: 0x8, addend: 0x0, symName: __ZNKSt3__116reverse_iteratorIPN2yy6parser17stack_symbol_typeEE4baseB8ue170006Ev, symObjAddr: 0xB528, symBinAddr: 0x100013630, symSize: 0x18 }
  - { offsetInCU: 0x2209A, offset: 0x2D158, size: 0x8, addend: 0x0, symName: __ZNSt3__129_AllocatorDestroyRangeReverseINS_9allocatorIN2yy6parser17stack_symbol_typeEEENS_16reverse_iteratorIPS4_EEEC1B8ue170006ERS5_RS8_SB_, symObjAddr: 0xB5C8, symBinAddr: 0x1000136D0, symSize: 0x44 }
  - { offsetInCU: 0x220F1, offset: 0x2D1AF, size: 0x8, addend: 0x0, symName: __ZNKSt3__116reverse_iteratorIPN2yy6parser17stack_symbol_typeEEdeB8ue170006Ev, symObjAddr: 0xB678, symBinAddr: 0x100013780, symSize: 0x28 }
  - { offsetInCU: 0x22126, offset: 0x2D1E4, size: 0x8, addend: 0x0, symName: __ZNSt3__116reverse_iteratorIPN2yy6parser17stack_symbol_typeEEppB8ue170006Ev, symObjAddr: 0xB6A0, symBinAddr: 0x1000137A8, symSize: 0x20 }
  - { offsetInCU: 0x2214C, offset: 0x2D20A, size: 0x8, addend: 0x0, symName: __ZNSt3__128__exception_guard_exceptionsINS_29_AllocatorDestroyRangeReverseINS_9allocatorIN2yy6parser17stack_symbol_typeEEENS_16reverse_iteratorIPS5_EEEEE10__completeB8ue170006Ev, symObjAddr: 0xB6C0, symBinAddr: 0x1000137C8, symSize: 0x1C }
  - { offsetInCU: 0x22172, offset: 0x2D230, size: 0x8, addend: 0x0, symName: __ZNSt3__128__exception_guard_exceptionsINS_29_AllocatorDestroyRangeReverseINS_9allocatorIN2yy6parser17stack_symbol_typeEEENS_16reverse_iteratorIPS5_EEEEED1B8ue170006Ev, symObjAddr: 0xB6DC, symBinAddr: 0x1000137E4, symSize: 0x2C }
  - { offsetInCU: 0x2219C, offset: 0x2D25A, size: 0x8, addend: 0x0, symName: __ZNSt3__128__exception_guard_exceptionsINS_29_AllocatorDestroyRangeReverseINS_9allocatorIN2yy6parser17stack_symbol_typeEEENS_16reverse_iteratorIPS5_EEEEEC1B8ue170006ESA_, symObjAddr: 0xB708, symBinAddr: 0x100013810, symSize: 0x34 }
  - { offsetInCU: 0x221D5, offset: 0x2D293, size: 0x8, addend: 0x0, symName: __ZNSt3__128__exception_guard_exceptionsINS_29_AllocatorDestroyRangeReverseINS_9allocatorIN2yy6parser17stack_symbol_typeEEENS_16reverse_iteratorIPS5_EEEEEC2B8ue170006ESA_, symObjAddr: 0xB73C, symBinAddr: 0x100013844, symSize: 0x30 }
  - { offsetInCU: 0x2220E, offset: 0x2D2CC, size: 0x8, addend: 0x0, symName: __ZNSt3__129_AllocatorDestroyRangeReverseINS_9allocatorIN2yy6parser17stack_symbol_typeEEENS_16reverse_iteratorIPS4_EEEC2B8ue170006ERS5_RS8_SB_, symObjAddr: 0xB76C, symBinAddr: 0x100013874, symSize: 0x38 }
  - { offsetInCU: 0x2226A, offset: 0x2D328, size: 0x8, addend: 0x0, symName: __ZNSt3__119__to_address_helperINS_16reverse_iteratorIPN2yy6parser17stack_symbol_typeEEEvE6__callB8ue170006ERKS6_, symObjAddr: 0xB7A4, symBinAddr: 0x1000138AC, symSize: 0x38 }
  - { offsetInCU: 0x2228D, offset: 0x2D34B, size: 0x8, addend: 0x0, symName: __ZNKSt3__116reverse_iteratorIPN2yy6parser17stack_symbol_typeEEptB8ue170006Ev, symObjAddr: 0xB7DC, symBinAddr: 0x1000138E4, symSize: 0x24 }
  - { offsetInCU: 0x222B3, offset: 0x2D371, size: 0x8, addend: 0x0, symName: __ZNSt3__128__exception_guard_exceptionsINS_29_AllocatorDestroyRangeReverseINS_9allocatorIN2yy6parser17stack_symbol_typeEEENS_16reverse_iteratorIPS5_EEEEED2B8ue170006Ev, symObjAddr: 0xB800, symBinAddr: 0x100013908, symSize: 0x50 }
  - { offsetInCU: 0x222DD, offset: 0x2D39B, size: 0x8, addend: 0x0, symName: __ZNKSt3__129_AllocatorDestroyRangeReverseINS_9allocatorIN2yy6parser17stack_symbol_typeEEENS_16reverse_iteratorIPS4_EEEclB8ue170006Ev, symObjAddr: 0xB850, symBinAddr: 0x100013958, symSize: 0xB4 }
  - { offsetInCU: 0x22304, offset: 0x2D3C2, size: 0x8, addend: 0x0, symName: __ZNSt3__116reverse_iteratorINS0_IPN2yy6parser17stack_symbol_typeEEEEC1B8ue170006ES5_, symObjAddr: 0xB974, symBinAddr: 0x100013A7C, symSize: 0x3C }
  - { offsetInCU: 0x2233C, offset: 0x2D3FA, size: 0x8, addend: 0x0, symName: __ZNSt3__116reverse_iteratorINS0_IPN2yy6parser17stack_symbol_typeEEEEppB8ue170006Ev, symObjAddr: 0xBA34, symBinAddr: 0x100013B3C, symSize: 0x30 }
  - { offsetInCU: 0x22362, offset: 0x2D420, size: 0x8, addend: 0x0, symName: __ZNKSt3__116reverse_iteratorINS0_IPN2yy6parser17stack_symbol_typeEEEE4baseB8ue170006Ev, symObjAddr: 0xBA64, symBinAddr: 0x100013B6C, symSize: 0x24 }
  - { offsetInCU: 0x2238D, offset: 0x2D44B, size: 0x8, addend: 0x0, symName: __ZNSt3__119__to_address_helperINS_16reverse_iteratorINS1_IPN2yy6parser17stack_symbol_typeEEEEEvE6__callB8ue170006ERKS7_, symObjAddr: 0xBA88, symBinAddr: 0x100013B90, symSize: 0x38 }
  - { offsetInCU: 0x223B0, offset: 0x2D46E, size: 0x8, addend: 0x0, symName: __ZNKSt3__116reverse_iteratorINS0_IPN2yy6parser17stack_symbol_typeEEEEptB8ue170006Ev, symObjAddr: 0xBAC0, symBinAddr: 0x100013BC8, symSize: 0x24 }
  - { offsetInCU: 0x223D6, offset: 0x2D494, size: 0x8, addend: 0x0, symName: __ZNKSt3__116reverse_iteratorINS0_IPN2yy6parser17stack_symbol_typeEEEEdeB8ue170006Ev, symObjAddr: 0xBAE4, symBinAddr: 0x100013BEC, symSize: 0x34 }
  - { offsetInCU: 0x2240B, offset: 0x2D4C9, size: 0x8, addend: 0x0, symName: __ZNSt3__116reverse_iteratorIPN2yy6parser17stack_symbol_typeEEmmB8ue170006Ev, symObjAddr: 0xBB18, symBinAddr: 0x100013C20, symSize: 0x20 }
  - { offsetInCU: 0x22431, offset: 0x2D4EF, size: 0x8, addend: 0x0, symName: __ZNSt3__116reverse_iteratorINS0_IPN2yy6parser17stack_symbol_typeEEEEC2B8ue170006ES5_, symObjAddr: 0xBB38, symBinAddr: 0x100013C40, symSize: 0x2C }
  - { offsetInCU: 0x22469, offset: 0x2D527, size: 0x8, addend: 0x0, symName: __ZNSt3__116reverse_iteratorIPN2yy6parser17stack_symbol_typeEEC2B8ue170006ES4_, symObjAddr: 0xBB64, symBinAddr: 0x100013C6C, symSize: 0x28 }
  - { offsetInCU: 0x224A1, offset: 0x2D55F, size: 0x8, addend: 0x0, symName: __ZNSt3__114__split_bufferIN2yy6parser17stack_symbol_typeERNS_9allocatorIS3_EEED2Ev, symObjAddr: 0xBB8C, symBinAddr: 0x100013C94, symSize: 0x8C }
  - { offsetInCU: 0x224CD, offset: 0x2D58B, size: 0x8, addend: 0x0, symName: __ZNSt3__114__split_bufferIN2yy6parser17stack_symbol_typeERNS_9allocatorIS3_EEE5clearB8ue170006Ev, symObjAddr: 0xBC18, symBinAddr: 0x100013D20, symSize: 0x28 }
  - { offsetInCU: 0x224F3, offset: 0x2D5B1, size: 0x8, addend: 0x0, symName: __ZNKSt3__114__split_bufferIN2yy6parser17stack_symbol_typeERNS_9allocatorIS3_EEE8capacityB8ue170006Ev, symObjAddr: 0xBC40, symBinAddr: 0x100013D48, symSize: 0x40 }
  - { offsetInCU: 0x22519, offset: 0x2D5D7, size: 0x8, addend: 0x0, symName: __ZNSt3__114__split_bufferIN2yy6parser17stack_symbol_typeERNS_9allocatorIS3_EEE17__destruct_at_endB8ue170006EPS3_, symObjAddr: 0xBC80, symBinAddr: 0x100013D88, symSize: 0x2C }
  - { offsetInCU: 0x2254D, offset: 0x2D60B, size: 0x8, addend: 0x0, symName: __ZNSt3__114__split_bufferIN2yy6parser17stack_symbol_typeERNS_9allocatorIS3_EEE17__destruct_at_endB8ue170006EPS3_NS_17integral_constantIbLb0EEE, symObjAddr: 0xBCAC, symBinAddr: 0x100013DB4, symSize: 0x80 }
  - { offsetInCU: 0x2258D, offset: 0x2D64B, size: 0x8, addend: 0x0, symName: __ZNKSt3__114__split_bufferIN2yy6parser17stack_symbol_typeERNS_9allocatorIS3_EEE9__end_capB8ue170006Ev, symObjAddr: 0xBD2C, symBinAddr: 0x100013E34, symSize: 0x28 }
  - { offsetInCU: 0x225B3, offset: 0x2D671, size: 0x8, addend: 0x0, symName: __ZNKSt3__117__compressed_pairIPN2yy6parser17stack_symbol_typeERNS_9allocatorIS3_EEE5firstB8ue170006Ev, symObjAddr: 0xBD54, symBinAddr: 0x100013E5C, symSize: 0x24 }
  - { offsetInCU: 0x225D9, offset: 0x2D697, size: 0x8, addend: 0x0, symName: __ZNSt3__16vectorIN2yy6parser17stack_symbol_typeENS_9allocatorIS3_EEE8pop_backEv, symObjAddr: 0xBD78, symBinAddr: 0x100013E80, symSize: 0x2C }
  - { offsetInCU: 0x22601, offset: 0x2D6BF, size: 0x8, addend: 0x0, symName: __ZNSt3__16vectorIN2yy6parser17stack_symbol_typeENS_9allocatorIS3_EEE17__destruct_at_endB8ue170006EPS3_, symObjAddr: 0xBDA4, symBinAddr: 0x100013EAC, symSize: 0x4C }
  - { offsetInCU: 0x22645, offset: 0x2D703, size: 0x8, addend: 0x0, symName: __ZNKSt3__16vectorIN2yy6parser17stack_symbol_typeENS_9allocatorIS3_EEE17__annotate_shrinkB8ue170006Em, symObjAddr: 0xBDF0, symBinAddr: 0x100013EF8, symSize: 0xD0 }
  - { offsetInCU: 0x22693, offset: 0x2D751, size: 0x8, addend: 0x0, symName: __ZNSt3__16vectorIN2yy6parser17stack_symbol_typeENS_9allocatorIS3_EEE5clearB8ue170006Ev, symObjAddr: 0xC934, symBinAddr: 0x100013FC8, symSize: 0x44 }
  - { offsetInCU: 0x226C8, offset: 0x2D786, size: 0x8, addend: 0x0, symName: __ZNSt3__16vectorIN2yy6parser17stack_symbol_typeENS_9allocatorIS3_EEEixB8ue170006Em, symObjAddr: 0xC978, symBinAddr: 0x10001400C, symSize: 0x2C }
  - { offsetInCU: 0x226FF, offset: 0x2D7BD, size: 0x8, addend: 0x0, symName: __ZN2yy6parser5stackINS0_17stack_symbol_typeENSt3__16vectorIS2_NS3_9allocatorIS2_EEEEE5sliceC2ERKS8_l, symObjAddr: 0xC9A4, symBinAddr: 0x100014038, symSize: 0x2C }
  - { offsetInCU: 0x22747, offset: 0x2D805, size: 0x8, addend: 0x0, symName: __ZNK2yy6parser5stackINS0_17stack_symbol_typeENSt3__16vectorIS2_NS3_9allocatorIS2_EEEEEixEl, symObjAddr: 0xC9D0, symBinAddr: 0x100014064, symSize: 0x44 }
  - { offsetInCU: 0x2277C, offset: 0x2D83A, size: 0x8, addend: 0x0, symName: __ZNKSt3__16vectorIN2yy6parser17stack_symbol_typeENS_9allocatorIS3_EEEixB8ue170006Em, symObjAddr: 0xCA14, symBinAddr: 0x1000140A8, symSize: 0x2C }
  - { offsetInCU: 0x227B3, offset: 0x2D871, size: 0x8, addend: 0x0, symName: __ZNSt3__16vectorIP7DeclASTNS_9allocatorIS2_EEE6insertINS_11__wrap_iterIPS2_EELi0EEES9_NS7_IPKS2_EET_SD_, symObjAddr: 0xCA40, symBinAddr: 0x1000140D4, symSize: 0x84 }
  - { offsetInCU: 0x22817, offset: 0x2D8D5, size: 0x8, addend: 0x0, symName: __ZNSt3__16vectorIP7DeclASTNS_9allocatorIS2_EEE3endB8ue170006Ev, symObjAddr: 0xCAC4, symBinAddr: 0x100014158, symSize: 0x30 }
  - { offsetInCU: 0x22849, offset: 0x2D907, size: 0x8, addend: 0x0, symName: __ZNSt3__111__wrap_iterIPKP7DeclASTEC1B8ue170006IPS2_EERKNS0_IT_EEPNS_9enable_ifIXsr14is_convertibleIS8_S4_EE5valueEvE4typeE, symObjAddr: 0xCAF4, symBinAddr: 0x100014188, symSize: 0x3C }
  - { offsetInCU: 0x22894, offset: 0x2D952, size: 0x8, addend: 0x0, symName: __ZNSt3__16vectorIP7DeclASTNS_9allocatorIS2_EEE5beginB8ue170006Ev, symObjAddr: 0xCB30, symBinAddr: 0x1000141C4, symSize: 0x30 }
  - { offsetInCU: 0x228BC, offset: 0x2D97A, size: 0x8, addend: 0x0, symName: __ZNSt3__16vectorIP7DeclASTNS_9allocatorIS2_EEE18__insert_with_sizeB8ue170006INS_11__wrap_iterIPS2_EES9_EES9_NS7_IPKS2_EET_T0_l, symObjAddr: 0xCB60, symBinAddr: 0x1000141F4, symSize: 0x310 }
  - { offsetInCU: 0x229E6, offset: 0x2DAA4, size: 0x8, addend: 0x0, symName: __ZNSt3__16vectorIP7DeclASTNS_9allocatorIS2_EEE18__construct_at_endINS_11__wrap_iterIPS2_EES9_EEvT_T0_m, symObjAddr: 0xCF68, symBinAddr: 0x1000145FC, symSize: 0x9C }
  - { offsetInCU: 0x22A5C, offset: 0x2DB1A, size: 0x8, addend: 0x0, symName: __ZNSt3__16vectorIP7DeclASTNS_9allocatorIS2_EEE12__move_rangeEPS2_S6_S6_, symObjAddr: 0xD004, symBinAddr: 0x100014698, symSize: 0x12C }
  - { offsetInCU: 0x22B1A, offset: 0x2DBD8, size: 0x8, addend: 0x0, symName: __ZNKSt3__16vectorIP7DeclASTNS_9allocatorIS2_EEE11__recommendB8ue170006Em, symObjAddr: 0xD180, symBinAddr: 0x100014814, symSize: 0xB4 }
  - { offsetInCU: 0x22B6F, offset: 0x2DC2D, size: 0x8, addend: 0x0, symName: __ZNSt3__114__split_bufferIP7DeclASTRNS_9allocatorIS2_EEEC1EmmS5_, symObjAddr: 0xD234, symBinAddr: 0x1000148C8, symSize: 0x44 }
  - { offsetInCU: 0x22BC5, offset: 0x2DC83, size: 0x8, addend: 0x0, symName: __ZNSt3__114__split_bufferIP7DeclASTRNS_9allocatorIS2_EEE28__construct_at_end_with_sizeINS_11__wrap_iterIPS2_EEEEvT_m, symObjAddr: 0xD278, symBinAddr: 0x10001490C, symSize: 0xD0 }
  - { offsetInCU: 0x22C21, offset: 0x2DCDF, size: 0x8, addend: 0x0, symName: __ZNSt3__114__split_bufferIP7DeclASTRNS_9allocatorIS2_EEED1Ev, symObjAddr: 0xD494, symBinAddr: 0x100014B28, symSize: 0x2C }
  - { offsetInCU: 0x22C4D, offset: 0x2DD0B, size: 0x8, addend: 0x0, symName: __ZNSt3__16vectorIP7DeclASTNS_9allocatorIS2_EEE11__make_iterB8ue170006EPS2_, symObjAddr: 0xD4C0, symBinAddr: 0x100014B54, symSize: 0x30 }
  - { offsetInCU: 0x22C82, offset: 0x2DD40, size: 0x8, addend: 0x0, symName: __ZNKSt3__111__wrap_iterIPKP7DeclASTE4baseB8ue170006Ev, symObjAddr: 0xD4F0, symBinAddr: 0x100014B84, symSize: 0x18 }
  - { offsetInCU: 0x22CA8, offset: 0x2DD66, size: 0x8, addend: 0x0, symName: __ZNKSt3__111__wrap_iterIPP7DeclASTE4baseB8ue170006Ev, symObjAddr: 0xD508, symBinAddr: 0x100014B9C, symSize: 0x18 }
  - { offsetInCU: 0x22CCE, offset: 0x2DD8C, size: 0x8, addend: 0x0, symName: __ZNSt3__111__wrap_iterIPP7DeclASTEpLB8ue170006El, symObjAddr: 0xD560, symBinAddr: 0x100014BF4, symSize: 0x28 }
  - { offsetInCU: 0x22D02, offset: 0x2DDC0, size: 0x8, addend: 0x0, symName: __ZNSt3__118__unwrap_iter_implINS_11__wrap_iterIPP7DeclASTEELb1EE8__unwrapB8ue170006ES5_, symObjAddr: 0xD6B4, symBinAddr: 0x100014D48, symSize: 0x28 }
  - { offsetInCU: 0x22D2A, offset: 0x2DDE8, size: 0x8, addend: 0x0, symName: __ZNSt3__119__to_address_helperINS_11__wrap_iterIPP7DeclASTEEvE6__callB8ue170006ERKS5_, symObjAddr: 0xD700, symBinAddr: 0x100014D94, symSize: 0x30 }
  - { offsetInCU: 0x22D4D, offset: 0x2DE0B, size: 0x8, addend: 0x0, symName: __ZNSt3__114pointer_traitsINS_11__wrap_iterIPP7DeclASTEEE10to_addressB8ue170006ES5_, symObjAddr: 0xD730, symBinAddr: 0x100014DC4, symSize: 0x2C }
  - { offsetInCU: 0x22D75, offset: 0x2DE33, size: 0x8, addend: 0x0, symName: __ZNSt3__116allocator_traitsINS_9allocatorIP7DeclASTEEE9constructB8ue170006IS3_JS3_EvEEvRS4_PT_DpOT0_, symObjAddr: 0xD75C, symBinAddr: 0x100014DF0, symSize: 0x34 }
  - { offsetInCU: 0x22DCC, offset: 0x2DE8A, size: 0x8, addend: 0x0, symName: __ZNSt3__19allocatorIP7DeclASTE9constructB8ue170006IS2_JS2_EEEvPT_DpOT0_, symObjAddr: 0xD7D0, symBinAddr: 0x100014E64, symSize: 0x28 }
  - { offsetInCU: 0x22E2C, offset: 0x2DEEA, size: 0x8, addend: 0x0, symName: __ZNKSt3__123__move_backward_trivialclB8ue170006IP7DeclASTS3_Li0EEENS_4pairIPT_PT0_EES6_S6_S8_, symObjAddr: 0xD934, symBinAddr: 0x100014FC8, symSize: 0x48 }
  - { offsetInCU: 0x22E94, offset: 0x2DF52, size: 0x8, addend: 0x0, symName: __ZNSt3__14pairIPP7DeclASTS3_EC1B8ue170006IRS3_S6_LPv0EEEOT_OT0_, symObjAddr: 0xDA44, symBinAddr: 0x1000150D8, symSize: 0x3C }
  - { offsetInCU: 0x22EF3, offset: 0x2DFB1, size: 0x8, addend: 0x0, symName: __ZNSt3__14pairIPP7DeclASTS3_EC2B8ue170006IRS3_S6_LPv0EEEOT_OT0_, symObjAddr: 0xDA80, symBinAddr: 0x100015114, symSize: 0x34 }
  - { offsetInCU: 0x22F70, offset: 0x2E02E, size: 0x8, addend: 0x0, symName: __ZNSt3__14pairINS_11__wrap_iterIPP7DeclASTEES4_EC1B8ue170006IS5_S4_LPv0EEEOT_OT0_, symObjAddr: 0xDC9C, symBinAddr: 0x100015330, symSize: 0x3C }
  - { offsetInCU: 0x22FCF, offset: 0x2E08D, size: 0x8, addend: 0x0, symName: __ZNSt3__14pairINS_11__wrap_iterIPP7DeclASTEES4_EC2B8ue170006IS5_S4_LPv0EEEOT_OT0_, symObjAddr: 0xDCD8, symBinAddr: 0x10001536C, symSize: 0x34 }
  - { offsetInCU: 0x2302E, offset: 0x2E0EC, size: 0x8, addend: 0x0, symName: __ZNSt3__118__unwrap_iter_implINS_11__wrap_iterIPP7DeclASTEELb1EE8__rewrapB8ue170006ES5_S4_, symObjAddr: 0xDD58, symBinAddr: 0x1000153EC, symSize: 0x5C }
  - { offsetInCU: 0x2305F, offset: 0x2E11D, size: 0x8, addend: 0x0, symName: __ZNKSt3__111__wrap_iterIPP7DeclASTEplB8ue170006El, symObjAddr: 0xDDB4, symBinAddr: 0x100015448, symSize: 0x3C }
  - { offsetInCU: 0x230A2, offset: 0x2E160, size: 0x8, addend: 0x0, symName: __ZNSt3__114__split_bufferIP7DeclASTRNS_9allocatorIS2_EEEC2EmmS5_, symObjAddr: 0xDDF0, symBinAddr: 0x100015484, symSize: 0xD4 }
  - { offsetInCU: 0x23116, offset: 0x2E1D4, size: 0x8, addend: 0x0, symName: __ZNSt3__117__compressed_pairIPP7DeclASTRNS_9allocatorIS2_EEEC1B8ue170006IDnS6_EEOT_OT0_, symObjAddr: 0xDEC4, symBinAddr: 0x100015558, symSize: 0x3C }
  - { offsetInCU: 0x2316E, offset: 0x2E22C, size: 0x8, addend: 0x0, symName: __ZNSt3__114__split_bufferIP7DeclASTRNS_9allocatorIS2_EEE7__allocB8ue170006Ev, symObjAddr: 0xDF00, symBinAddr: 0x100015594, symSize: 0x28 }
  - { offsetInCU: 0x23194, offset: 0x2E252, size: 0x8, addend: 0x0, symName: __ZNSt3__114__split_bufferIP7DeclASTRNS_9allocatorIS2_EEE9__end_capB8ue170006Ev, symObjAddr: 0xDF28, symBinAddr: 0x1000155BC, symSize: 0x28 }
  - { offsetInCU: 0x231BA, offset: 0x2E278, size: 0x8, addend: 0x0, symName: __ZNSt3__117__compressed_pairIPP7DeclASTRNS_9allocatorIS2_EEEC2B8ue170006IDnS6_EEOT_OT0_, symObjAddr: 0xDF50, symBinAddr: 0x1000155E4, symSize: 0x48 }
  - { offsetInCU: 0x23212, offset: 0x2E2D0, size: 0x8, addend: 0x0, symName: __ZNSt3__122__compressed_pair_elemIRNS_9allocatorIP7DeclASTEELi1ELb0EEC2B8ue170006IS5_vEEOT_, symObjAddr: 0xDF98, symBinAddr: 0x10001562C, symSize: 0x20 }
  - { offsetInCU: 0x23254, offset: 0x2E312, size: 0x8, addend: 0x0, symName: __ZNSt3__117__compressed_pairIPP7DeclASTRNS_9allocatorIS2_EEE6secondB8ue170006Ev, symObjAddr: 0xDFB8, symBinAddr: 0x10001564C, symSize: 0x28 }
  - { offsetInCU: 0x2327A, offset: 0x2E338, size: 0x8, addend: 0x0, symName: __ZNSt3__122__compressed_pair_elemIRNS_9allocatorIP7DeclASTEELi1ELb0EE5__getB8ue170006Ev, symObjAddr: 0xDFE0, symBinAddr: 0x100015674, symSize: 0x18 }
  - { offsetInCU: 0x232A0, offset: 0x2E35E, size: 0x8, addend: 0x0, symName: __ZNSt3__117__compressed_pairIPP7DeclASTRNS_9allocatorIS2_EEE5firstB8ue170006Ev, symObjAddr: 0xDFF8, symBinAddr: 0x10001568C, symSize: 0x24 }
  - { offsetInCU: 0x232D0, offset: 0x2E38E, size: 0x8, addend: 0x0, symName: __ZNSt3__114__split_bufferIP7DeclASTRNS_9allocatorIS2_EEE21_ConstructTransactionC1B8ue170006EPPS2_m, symObjAddr: 0xE01C, symBinAddr: 0x1000156B0, symSize: 0x3C }
  - { offsetInCU: 0x23316, offset: 0x2E3D4, size: 0x8, addend: 0x0, symName: __ZNSt3__116allocator_traitsINS_9allocatorIP7DeclASTEEE9constructB8ue170006IS3_JRS3_EvEEvRS4_PT_DpOT0_, symObjAddr: 0xE058, symBinAddr: 0x1000156EC, symSize: 0x34 }
  - { offsetInCU: 0x2336D, offset: 0x2E42B, size: 0x8, addend: 0x0, symName: __ZNKSt3__111__wrap_iterIPP7DeclASTEdeB8ue170006Ev, symObjAddr: 0xE08C, symBinAddr: 0x100015720, symSize: 0x18 }
  - { offsetInCU: 0x23393, offset: 0x2E451, size: 0x8, addend: 0x0, symName: __ZNSt3__111__wrap_iterIPP7DeclASTEppB8ue170006Ev, symObjAddr: 0xE0A4, symBinAddr: 0x100015738, symSize: 0x20 }
  - { offsetInCU: 0x233B9, offset: 0x2E477, size: 0x8, addend: 0x0, symName: __ZNSt3__114__split_bufferIP7DeclASTRNS_9allocatorIS2_EEE21_ConstructTransactionD1B8ue170006Ev, symObjAddr: 0xE0C4, symBinAddr: 0x100015758, symSize: 0x2C }
  - { offsetInCU: 0x233E3, offset: 0x2E4A1, size: 0x8, addend: 0x0, symName: __ZNSt3__114__split_bufferIP7DeclASTRNS_9allocatorIS2_EEE21_ConstructTransactionC2B8ue170006EPPS2_m, symObjAddr: 0xE0F0, symBinAddr: 0x100015784, symSize: 0x44 }
  - { offsetInCU: 0x23429, offset: 0x2E4E7, size: 0x8, addend: 0x0, symName: __ZNSt3__19allocatorIP7DeclASTE9constructB8ue170006IS2_JRS2_EEEvPT_DpOT0_, symObjAddr: 0xE134, symBinAddr: 0x1000157C8, symSize: 0x28 }
  - { offsetInCU: 0x2347F, offset: 0x2E53D, size: 0x8, addend: 0x0, symName: __ZNSt3__114__split_bufferIP7DeclASTRNS_9allocatorIS2_EEE21_ConstructTransactionD2B8ue170006Ev, symObjAddr: 0xE15C, symBinAddr: 0x1000157F0, symSize: 0x20 }
  - { offsetInCU: 0x234A9, offset: 0x2E567, size: 0x8, addend: 0x0, symName: __ZNSt3__116reverse_iteratorIPP7DeclASTEC1B8ue170006ES3_, symObjAddr: 0xE1F4, symBinAddr: 0x100015888, symSize: 0x34 }
  - { offsetInCU: 0x234E1, offset: 0x2E59F, size: 0x8, addend: 0x0, symName: __ZNKSt3__116reverse_iteratorIPP7DeclASTE4baseB8ue170006Ev, symObjAddr: 0xE228, symBinAddr: 0x1000158BC, symSize: 0x18 }
  - { offsetInCU: 0x2352A, offset: 0x2E5E8, size: 0x8, addend: 0x0, symName: __ZNKSt3__111__move_loopINS_17_ClassicAlgPolicyEEclB8ue170006INS_16reverse_iteratorIPP7DeclASTEES8_S8_EENS_4pairIT_T1_EESA_T0_SB_, symObjAddr: 0xE5A4, symBinAddr: 0x100015C38, symSize: 0xA0 }
  - { offsetInCU: 0x23595, offset: 0x2E653, size: 0x8, addend: 0x0, symName: __ZNSt3__18_IterOpsINS_17_ClassicAlgPolicyEE11__iter_moveB8ue170006IRNS_16reverse_iteratorIPP7DeclASTEEEENS_9enable_ifIXsr12is_referenceIDTdeclsr3stdE7declvalIRT_EEEEE5valueEDTclsr3stdE4movedeclsr3stdE7declvalISC_EEEEE4typeEOSB_, symObjAddr: 0xE7D8, symBinAddr: 0x100015E6C, symSize: 0x28 }
  - { offsetInCU: 0x235C1, offset: 0x2E67F, size: 0x8, addend: 0x0, symName: __ZNKSt3__116reverse_iteratorIPP7DeclASTEdeB8ue170006Ev, symObjAddr: 0xE800, symBinAddr: 0x100015E94, symSize: 0x28 }
  - { offsetInCU: 0x235F6, offset: 0x2E6B4, size: 0x8, addend: 0x0, symName: __ZNSt3__116reverse_iteratorIPP7DeclASTEppB8ue170006Ev, symObjAddr: 0xE828, symBinAddr: 0x100015EBC, symSize: 0x20 }
  - { offsetInCU: 0x2361C, offset: 0x2E6DA, size: 0x8, addend: 0x0, symName: __ZNSt3__18_IterOpsINS_17_ClassicAlgPolicyEE25__validate_iter_referenceB8ue170006IRNS_16reverse_iteratorIPP7DeclASTEEEEvv, symObjAddr: 0xE848, symBinAddr: 0x100015EDC, symSize: 0x4 }
  - { offsetInCU: 0x2363A, offset: 0x2E6F8, size: 0x8, addend: 0x0, symName: __ZNSt3__118__unwrap_iter_implINS_16reverse_iteratorIPP7DeclASTEELb0EE8__unwrapB8ue170006ES5_, symObjAddr: 0xE84C, symBinAddr: 0x100015EE0, symSize: 0x24 }
  - { offsetInCU: 0x23662, offset: 0x2E720, size: 0x8, addend: 0x0, symName: __ZNSt3__14pairINS_16reverse_iteratorIPP7DeclASTEES5_EC1B8ue170006IS5_S5_LPv0EEEOT_OT0_, symObjAddr: 0xE870, symBinAddr: 0x100015F04, symSize: 0x3C }
  - { offsetInCU: 0x236C1, offset: 0x2E77F, size: 0x8, addend: 0x0, symName: __ZNSt3__14pairINS_16reverse_iteratorIPP7DeclASTEES5_EC2B8ue170006IS5_S5_LPv0EEEOT_OT0_, symObjAddr: 0xE8AC, symBinAddr: 0x100015F40, symSize: 0x34 }
  - { offsetInCU: 0x23720, offset: 0x2E7DE, size: 0x8, addend: 0x0, symName: __ZNSt3__118__unwrap_iter_implINS_16reverse_iteratorIPP7DeclASTEELb0EE8__rewrapB8ue170006ES5_S5_, symObjAddr: 0xE8E0, symBinAddr: 0x100015F74, symSize: 0x2C }
  - { offsetInCU: 0x2374D, offset: 0x2E80B, size: 0x8, addend: 0x0, symName: __ZNSt3__116reverse_iteratorIPP7DeclASTEC2B8ue170006ES3_, symObjAddr: 0xE90C, symBinAddr: 0x100015FA0, symSize: 0x28 }
  - { offsetInCU: 0x2378F, offset: 0x2E84D, size: 0x8, addend: 0x0, symName: __ZNKSt3__114__move_trivialclB8ue170006IP7DeclASTS3_Li0EEENS_4pairIPT_PT0_EES6_S6_S8_, symObjAddr: 0xEAB0, symBinAddr: 0x100016144, symSize: 0x48 }
  - { offsetInCU: 0x237F7, offset: 0x2E8B5, size: 0x8, addend: 0x0, symName: __ZNSt3__114__split_bufferIP7DeclASTRNS_9allocatorIS2_EEED2Ev, symObjAddr: 0xEAF8, symBinAddr: 0x10001618C, symSize: 0x8C }
  - { offsetInCU: 0x23823, offset: 0x2E8E1, size: 0x8, addend: 0x0, symName: __ZNSt3__114__split_bufferIP7DeclASTRNS_9allocatorIS2_EEE5clearB8ue170006Ev, symObjAddr: 0xEB84, symBinAddr: 0x100016218, symSize: 0x28 }
  - { offsetInCU: 0x23849, offset: 0x2E907, size: 0x8, addend: 0x0, symName: __ZNKSt3__114__split_bufferIP7DeclASTRNS_9allocatorIS2_EEE8capacityB8ue170006Ev, symObjAddr: 0xEBAC, symBinAddr: 0x100016240, symSize: 0x40 }
  - { offsetInCU: 0x2386F, offset: 0x2E92D, size: 0x8, addend: 0x0, symName: __ZNSt3__114__split_bufferIP7DeclASTRNS_9allocatorIS2_EEE17__destruct_at_endB8ue170006EPS2_, symObjAddr: 0xEBEC, symBinAddr: 0x100016280, symSize: 0x2C }
  - { offsetInCU: 0x238A3, offset: 0x2E961, size: 0x8, addend: 0x0, symName: __ZNSt3__114__split_bufferIP7DeclASTRNS_9allocatorIS2_EEE17__destruct_at_endB8ue170006EPS2_NS_17integral_constantIbLb0EEE, symObjAddr: 0xEC18, symBinAddr: 0x1000162AC, symSize: 0x80 }
  - { offsetInCU: 0x238E3, offset: 0x2E9A1, size: 0x8, addend: 0x0, symName: __ZNKSt3__114__split_bufferIP7DeclASTRNS_9allocatorIS2_EEE9__end_capB8ue170006Ev, symObjAddr: 0xEC98, symBinAddr: 0x10001632C, symSize: 0x28 }
  - { offsetInCU: 0x23909, offset: 0x2E9C7, size: 0x8, addend: 0x0, symName: __ZNKSt3__117__compressed_pairIPP7DeclASTRNS_9allocatorIS2_EEE5firstB8ue170006Ev, symObjAddr: 0xECC0, symBinAddr: 0x100016354, symSize: 0x24 }
  - { offsetInCU: 0x2392F, offset: 0x2E9ED, size: 0x8, addend: 0x0, symName: __ZNSt3__111__wrap_iterIPP7DeclASTEC1B8ue170006ES3_, symObjAddr: 0xECE4, symBinAddr: 0x100016378, symSize: 0x34 }
  - { offsetInCU: 0x23967, offset: 0x2EA25, size: 0x8, addend: 0x0, symName: __ZNSt3__111__wrap_iterIPP7DeclASTEC2B8ue170006ES3_, symObjAddr: 0xED18, symBinAddr: 0x1000163AC, symSize: 0x20 }
  - { offsetInCU: 0x2399F, offset: 0x2EA5D, size: 0x8, addend: 0x0, symName: __ZNSt3__111__wrap_iterIPKP7DeclASTEC2B8ue170006IPS2_EERKNS0_IT_EEPNS_9enable_ifIXsr14is_convertibleIS8_S4_EE5valueEvE4typeE, symObjAddr: 0xEDB0, symBinAddr: 0x100016444, symSize: 0x40 }
  - { offsetInCU: 0x239EA, offset: 0x2EAA8, size: 0x8, addend: 0x0, symName: __ZNSt3__16vectorIP7DeclASTNS_9allocatorIS2_EEEC2B8ue170006Ev, symObjAddr: 0xEDF0, symBinAddr: 0x100016484, symSize: 0x4C }
  - { offsetInCU: 0x23A14, offset: 0x2EAD2, size: 0x8, addend: 0x0, symName: __ZNSt3__117__compressed_pairIPP7DeclASTNS_9allocatorIS2_EEEC1B8ue170006IDnNS_18__default_init_tagEEEOT_OT0_, symObjAddr: 0xEE3C, symBinAddr: 0x1000164D0, symSize: 0x3C }
  - { offsetInCU: 0x23A6C, offset: 0x2EB2A, size: 0x8, addend: 0x0, symName: __ZNSt3__117__compressed_pairIPP7DeclASTNS_9allocatorIS2_EEEC2B8ue170006IDnNS_18__default_init_tagEEEOT_OT0_, symObjAddr: 0xEE78, symBinAddr: 0x10001650C, symSize: 0x40 }
  - { offsetInCU: 0x23AC4, offset: 0x2EB82, size: 0x8, addend: 0x0, symName: __ZNSt3__122__compressed_pair_elemINS_9allocatorIP7DeclASTEELi1ELb1EEC2B8ue170006ENS_18__default_init_tagE, symObjAddr: 0xEEB8, symBinAddr: 0x10001654C, symSize: 0x2C }
  - { offsetInCU: 0x23AF8, offset: 0x2EBB6, size: 0x8, addend: 0x0, symName: __ZNSt3__19allocatorIP7DeclASTEC2B8ue170006Ev, symObjAddr: 0xEEE4, symBinAddr: 0x100016578, symSize: 0x2C }
  - { offsetInCU: 0x23B22, offset: 0x2EBE0, size: 0x8, addend: 0x0, symName: __ZNSt3__116__non_trivial_ifILb1ENS_9allocatorIP7DeclASTEEEC2B8ue170006Ev, symObjAddr: 0xEF10, symBinAddr: 0x1000165A4, symSize: 0x14 }
  - { offsetInCU: 0x23B4C, offset: 0x2EC0A, size: 0x8, addend: 0x0, symName: __ZNSt3__16vectorIP7DeclASTNS_9allocatorIS2_EEE9push_backB8ue170006ERKS2_, symObjAddr: 0xEF24, symBinAddr: 0x1000165B8, symSize: 0x6C }
  - { offsetInCU: 0x23B83, offset: 0x2EC41, size: 0x8, addend: 0x0, symName: __ZNSt3__16vectorIP7DeclASTNS_9allocatorIS2_EEE22__construct_one_at_endB8ue170006IJRKS2_EEEvDpOT_, symObjAddr: 0xEF90, symBinAddr: 0x100016624, symSize: 0x90 }
  - { offsetInCU: 0x23BD2, offset: 0x2EC90, size: 0x8, addend: 0x0, symName: __ZNSt3__16vectorIP7DeclASTNS_9allocatorIS2_EEE21__push_back_slow_pathIRKS2_EEvOT_, symObjAddr: 0xF020, symBinAddr: 0x1000166B4, symSize: 0xD8 }
  - { offsetInCU: 0x23C30, offset: 0x2ECEE, size: 0x8, addend: 0x0, symName: __ZNSt3__116allocator_traitsINS_9allocatorIP7DeclASTEEE9constructB8ue170006IS3_JRKS3_EvEEvRS4_PT_DpOT0_, symObjAddr: 0xF0F8, symBinAddr: 0x10001678C, symSize: 0x34 }
  - { offsetInCU: 0x23C87, offset: 0x2ED45, size: 0x8, addend: 0x0, symName: __ZNSt3__19allocatorIP7DeclASTE9constructB8ue170006IS2_JRKS2_EEEvPT_DpOT0_, symObjAddr: 0xF12C, symBinAddr: 0x1000167C0, symSize: 0x28 }
  - { offsetInCU: 0x23CDD, offset: 0x2ED9B, size: 0x8, addend: 0x0, symName: __ZNSt3__16vectorIP6VarASTNS_9allocatorIS2_EEE9__end_capB8ue170006Ev, symObjAddr: 0xF264, symBinAddr: 0x1000168F8, symSize: 0x28 }
  - { offsetInCU: 0x23D03, offset: 0x2EDC1, size: 0x8, addend: 0x0, symName: __ZNSt3__16vectorIP6VarASTNS_9allocatorIS2_EEE22__construct_one_at_endB8ue170006IJRKS2_EEEvDpOT_, symObjAddr: 0xF28C, symBinAddr: 0x100016920, symSize: 0x90 }
  - { offsetInCU: 0x23D52, offset: 0x2EE10, size: 0x8, addend: 0x0, symName: __ZNSt3__16vectorIP6VarASTNS_9allocatorIS2_EEE21__push_back_slow_pathIRKS2_EEvOT_, symObjAddr: 0xF31C, symBinAddr: 0x1000169B0, symSize: 0xD8 }
  - { offsetInCU: 0x23DB0, offset: 0x2EE6E, size: 0x8, addend: 0x0, symName: __ZNSt3__117__compressed_pairIPP6VarASTNS_9allocatorIS2_EEE5firstB8ue170006Ev, symObjAddr: 0xF3F4, symBinAddr: 0x100016A88, symSize: 0x24 }
  - { offsetInCU: 0x23DD6, offset: 0x2EE94, size: 0x8, addend: 0x0, symName: __ZNSt3__122__compressed_pair_elemIPP6VarASTLi0ELb0EE5__getB8ue170006Ev, symObjAddr: 0xF418, symBinAddr: 0x100016AAC, symSize: 0x14 }
  - { offsetInCU: 0x23E15, offset: 0x2EED3, size: 0x8, addend: 0x0, symName: __ZNSt3__16vectorIP6VarASTNS_9allocatorIS2_EEE21_ConstructTransactionC1B8ue170006ERS5_m, symObjAddr: 0xF42C, symBinAddr: 0x100016AC0, symSize: 0x3C }
  - { offsetInCU: 0x23E5D, offset: 0x2EF1B, size: 0x8, addend: 0x0, symName: __ZNSt3__116allocator_traitsINS_9allocatorIP6VarASTEEE9constructB8ue170006IS3_JRKS3_EvEEvRS4_PT_DpOT0_, symObjAddr: 0xF468, symBinAddr: 0x100016AFC, symSize: 0x34 }
  - { offsetInCU: 0x23EB4, offset: 0x2EF72, size: 0x8, addend: 0x0, symName: __ZNSt3__16vectorIP6VarASTNS_9allocatorIS2_EEE7__allocB8ue170006Ev, symObjAddr: 0xF49C, symBinAddr: 0x100016B30, symSize: 0x28 }
  - { offsetInCU: 0x23EDA, offset: 0x2EF98, size: 0x8, addend: 0x0, symName: __ZNSt3__16vectorIP6VarASTNS_9allocatorIS2_EEE21_ConstructTransactionD1B8ue170006Ev, symObjAddr: 0xF4D8, symBinAddr: 0x100016B6C, symSize: 0x2C }
  - { offsetInCU: 0x23F04, offset: 0x2EFC2, size: 0x8, addend: 0x0, symName: __ZNSt3__16vectorIP6VarASTNS_9allocatorIS2_EEE21_ConstructTransactionC2B8ue170006ERS5_m, symObjAddr: 0xF504, symBinAddr: 0x100016B98, symSize: 0x44 }
  - { offsetInCU: 0x23F4C, offset: 0x2F00A, size: 0x8, addend: 0x0, symName: __ZNSt3__19allocatorIP6VarASTE9constructB8ue170006IS2_JRKS2_EEEvPT_DpOT0_, symObjAddr: 0xF548, symBinAddr: 0x100016BDC, symSize: 0x28 }
  - { offsetInCU: 0x23FA2, offset: 0x2F060, size: 0x8, addend: 0x0, symName: __ZNSt3__117__compressed_pairIPP6VarASTNS_9allocatorIS2_EEE6secondB8ue170006Ev, symObjAddr: 0xF570, symBinAddr: 0x100016C04, symSize: 0x24 }
  - { offsetInCU: 0x23FC8, offset: 0x2F086, size: 0x8, addend: 0x0, symName: __ZNSt3__122__compressed_pair_elemINS_9allocatorIP6VarASTEELi1ELb1EE5__getB8ue170006Ev, symObjAddr: 0xF594, symBinAddr: 0x100016C28, symSize: 0x14 }
  - { offsetInCU: 0x23FEE, offset: 0x2F0AC, size: 0x8, addend: 0x0, symName: __ZNSt3__16vectorIP6VarASTNS_9allocatorIS2_EEE21_ConstructTransactionD2B8ue170006Ev, symObjAddr: 0xF5A8, symBinAddr: 0x100016C3C, symSize: 0x20 }
  - { offsetInCU: 0x24018, offset: 0x2F0D6, size: 0x8, addend: 0x0, symName: __ZNKSt3__16vectorIP6VarASTNS_9allocatorIS2_EEE11__recommendB8ue170006Em, symObjAddr: 0xF5C8, symBinAddr: 0x100016C5C, symSize: 0xB4 }
  - { offsetInCU: 0x2406D, offset: 0x2F12B, size: 0x8, addend: 0x0, symName: __ZNKSt3__16vectorIP6VarASTNS_9allocatorIS2_EEE4sizeB8ue170006Ev, symObjAddr: 0xF67C, symBinAddr: 0x100016D10, symSize: 0x28 }
  - { offsetInCU: 0x24093, offset: 0x2F151, size: 0x8, addend: 0x0, symName: __ZNSt3__114__split_bufferIP6VarASTRNS_9allocatorIS2_EEEC1EmmS5_, symObjAddr: 0xF6A4, symBinAddr: 0x100016D38, symSize: 0x44 }
  - { offsetInCU: 0x240E9, offset: 0x2F1A7, size: 0x8, addend: 0x0, symName: __ZNSt3__114__split_bufferIP6VarASTRNS_9allocatorIS2_EEED1Ev, symObjAddr: 0xF7F8, symBinAddr: 0x100016E8C, symSize: 0x2C }
  - { offsetInCU: 0x24115, offset: 0x2F1D3, size: 0x8, addend: 0x0, symName: __ZNKSt3__16vectorIP6VarASTNS_9allocatorIS2_EEE8max_sizeEv, symObjAddr: 0xF824, symBinAddr: 0x100016EB8, symSize: 0x60 }
  - { offsetInCU: 0x2413D, offset: 0x2F1FB, size: 0x8, addend: 0x0, symName: __ZNKSt3__16vectorIP6VarASTNS_9allocatorIS2_EEE20__throw_length_errorB8ue170006Ev, symObjAddr: 0xF884, symBinAddr: 0x100016F18, symSize: 0x1C }
  - { offsetInCU: 0x24163, offset: 0x2F221, size: 0x8, addend: 0x0, symName: __ZNKSt3__16vectorIP6VarASTNS_9allocatorIS2_EEE8capacityB8ue170006Ev, symObjAddr: 0xF8A0, symBinAddr: 0x100016F34, symSize: 0x40 }
  - { offsetInCU: 0x24193, offset: 0x2F251, size: 0x8, addend: 0x0, symName: __ZNSt3__116allocator_traitsINS_9allocatorIP6VarASTEEE8max_sizeB8ue170006IS4_vEEmRKS4_, symObjAddr: 0xF8E0, symBinAddr: 0x100016F74, symSize: 0x24 }
  - { offsetInCU: 0x241C1, offset: 0x2F27F, size: 0x8, addend: 0x0, symName: __ZNKSt3__16vectorIP6VarASTNS_9allocatorIS2_EEE7__allocB8ue170006Ev, symObjAddr: 0xF904, symBinAddr: 0x100016F98, symSize: 0x28 }
  - { offsetInCU: 0x241E7, offset: 0x2F2A5, size: 0x8, addend: 0x0, symName: __ZNKSt3__19allocatorIP6VarASTE8max_sizeB8ue170006Ev, symObjAddr: 0xF92C, symBinAddr: 0x100016FC0, symSize: 0x14 }
  - { offsetInCU: 0x2420D, offset: 0x2F2CB, size: 0x8, addend: 0x0, symName: __ZNKSt3__117__compressed_pairIPP6VarASTNS_9allocatorIS2_EEE6secondB8ue170006Ev, symObjAddr: 0xF940, symBinAddr: 0x100016FD4, symSize: 0x24 }
  - { offsetInCU: 0x24233, offset: 0x2F2F1, size: 0x8, addend: 0x0, symName: __ZNKSt3__122__compressed_pair_elemINS_9allocatorIP6VarASTEELi1ELb1EE5__getB8ue170006Ev, symObjAddr: 0xF964, symBinAddr: 0x100016FF8, symSize: 0x14 }
  - { offsetInCU: 0x24259, offset: 0x2F317, size: 0x8, addend: 0x0, symName: __ZNKSt3__16vectorIP6VarASTNS_9allocatorIS2_EEE9__end_capB8ue170006Ev, symObjAddr: 0xF978, symBinAddr: 0x10001700C, symSize: 0x28 }
  - { offsetInCU: 0x2427F, offset: 0x2F33D, size: 0x8, addend: 0x0, symName: __ZNKSt3__117__compressed_pairIPP6VarASTNS_9allocatorIS2_EEE5firstB8ue170006Ev, symObjAddr: 0xF9A0, symBinAddr: 0x100017034, symSize: 0x24 }
  - { offsetInCU: 0x242A5, offset: 0x2F363, size: 0x8, addend: 0x0, symName: __ZNKSt3__122__compressed_pair_elemIPP6VarASTLi0ELb0EE5__getB8ue170006Ev, symObjAddr: 0xF9C4, symBinAddr: 0x100017058, symSize: 0x14 }
  - { offsetInCU: 0x242CB, offset: 0x2F389, size: 0x8, addend: 0x0, symName: __ZNSt3__114__split_bufferIP6VarASTRNS_9allocatorIS2_EEEC2EmmS5_, symObjAddr: 0xF9D8, symBinAddr: 0x10001706C, symSize: 0xD4 }
  - { offsetInCU: 0x2433F, offset: 0x2F3FD, size: 0x8, addend: 0x0, symName: __ZNSt3__117__compressed_pairIPP6VarASTRNS_9allocatorIS2_EEEC1B8ue170006IDnS6_EEOT_OT0_, symObjAddr: 0xFAAC, symBinAddr: 0x100017140, symSize: 0x3C }
  - { offsetInCU: 0x24397, offset: 0x2F455, size: 0x8, addend: 0x0, symName: __ZNSt3__114__split_bufferIP6VarASTRNS_9allocatorIS2_EEE7__allocB8ue170006Ev, symObjAddr: 0xFB28, symBinAddr: 0x1000171BC, symSize: 0x28 }
  - { offsetInCU: 0x243BD, offset: 0x2F47B, size: 0x8, addend: 0x0, symName: __ZNSt3__114__split_bufferIP6VarASTRNS_9allocatorIS2_EEE9__end_capB8ue170006Ev, symObjAddr: 0xFB50, symBinAddr: 0x1000171E4, symSize: 0x28 }
  - { offsetInCU: 0x243E3, offset: 0x2F4A1, size: 0x8, addend: 0x0, symName: __ZNSt3__117__compressed_pairIPP6VarASTRNS_9allocatorIS2_EEEC2B8ue170006IDnS6_EEOT_OT0_, symObjAddr: 0xFB78, symBinAddr: 0x10001720C, symSize: 0x48 }
  - { offsetInCU: 0x2443B, offset: 0x2F4F9, size: 0x8, addend: 0x0, symName: __ZNSt3__122__compressed_pair_elemIPP6VarASTLi0ELb0EEC2B8ue170006IDnvEEOT_, symObjAddr: 0xFBC0, symBinAddr: 0x100017254, symSize: 0x1C }
  - { offsetInCU: 0x2447D, offset: 0x2F53B, size: 0x8, addend: 0x0, symName: __ZNSt3__122__compressed_pair_elemIRNS_9allocatorIP6VarASTEELi1ELb0EEC2B8ue170006IS5_vEEOT_, symObjAddr: 0xFBDC, symBinAddr: 0x100017270, symSize: 0x20 }
  - { offsetInCU: 0x244BF, offset: 0x2F57D, size: 0x8, addend: 0x0, symName: __ZNSt3__19allocatorIP6VarASTE8allocateB8ue170006Em, symObjAddr: 0xFBFC, symBinAddr: 0x100017290, symSize: 0x58 }
  - { offsetInCU: 0x244F3, offset: 0x2F5B1, size: 0x8, addend: 0x0, symName: __ZNSt3__117__compressed_pairIPP6VarASTRNS_9allocatorIS2_EEE6secondB8ue170006Ev, symObjAddr: 0xFC54, symBinAddr: 0x1000172E8, symSize: 0x28 }
  - { offsetInCU: 0x24519, offset: 0x2F5D7, size: 0x8, addend: 0x0, symName: __ZNSt3__122__compressed_pair_elemIRNS_9allocatorIP6VarASTEELi1ELb0EE5__getB8ue170006Ev, symObjAddr: 0xFC7C, symBinAddr: 0x100017310, symSize: 0x18 }
  - { offsetInCU: 0x2453F, offset: 0x2F5FD, size: 0x8, addend: 0x0, symName: __ZNSt3__117__compressed_pairIPP6VarASTRNS_9allocatorIS2_EEE5firstB8ue170006Ev, symObjAddr: 0xFC94, symBinAddr: 0x100017328, symSize: 0x24 }
  - { offsetInCU: 0x24565, offset: 0x2F623, size: 0x8, addend: 0x0, symName: __ZNKSt3__16vectorIP6VarASTNS_9allocatorIS2_EEE17__annotate_deleteB8ue170006Ev, symObjAddr: 0xFCB8, symBinAddr: 0x10001734C, symSize: 0xB8 }
  - { offsetInCU: 0x2458B, offset: 0x2F649, size: 0x8, addend: 0x0, symName: __ZNSt3__116reverse_iteratorIPP6VarASTEC1B8ue170006ES3_, symObjAddr: 0xFDE8, symBinAddr: 0x10001747C, symSize: 0x34 }
  - { offsetInCU: 0x245C3, offset: 0x2F681, size: 0x8, addend: 0x0, symName: __ZNKSt3__116reverse_iteratorIPP6VarASTE4baseB8ue170006Ev, symObjAddr: 0xFE1C, symBinAddr: 0x1000174B0, symSize: 0x18 }
  - { offsetInCU: 0x245E9, offset: 0x2F6A7, size: 0x8, addend: 0x0, symName: __ZNKSt3__16vectorIP6VarASTNS_9allocatorIS2_EEE14__annotate_newB8ue170006Em, symObjAddr: 0xFE70, symBinAddr: 0x100017504, symSize: 0xAC }
  - { offsetInCU: 0x2461E, offset: 0x2F6DC, size: 0x8, addend: 0x0, symName: __ZNKSt3__16vectorIP6VarASTNS_9allocatorIS2_EEE31__annotate_contiguous_containerB8ue170006EPKvS7_S7_S7_, symObjAddr: 0xFF1C, symBinAddr: 0x1000175B0, symSize: 0x20 }
  - { offsetInCU: 0x24674, offset: 0x2F732, size: 0x8, addend: 0x0, symName: __ZNKSt3__16vectorIP6VarASTNS_9allocatorIS2_EEE4dataB8ue170006Ev, symObjAddr: 0xFF3C, symBinAddr: 0x1000175D0, symSize: 0x28 }
  - { offsetInCU: 0x246B3, offset: 0x2F771, size: 0x8, addend: 0x0, symName: __ZNKSt3__111__move_loopINS_17_ClassicAlgPolicyEEclB8ue170006INS_16reverse_iteratorIPP6VarASTEES8_S8_EENS_4pairIT_T1_EESA_T0_SB_, symObjAddr: 0x10254, symBinAddr: 0x1000178E8, symSize: 0xA0 }
  - { offsetInCU: 0x24723, offset: 0x2F7E1, size: 0x8, addend: 0x0, symName: __ZNSt3__18_IterOpsINS_17_ClassicAlgPolicyEE11__iter_moveB8ue170006IRNS_16reverse_iteratorIPP6VarASTEEEENS_9enable_ifIXsr12is_referenceIDTdeclsr3stdE7declvalIRT_EEEEE5valueEDTclsr3stdE4movedeclsr3stdE7declvalISC_EEEEE4typeEOSB_, symObjAddr: 0x10488, symBinAddr: 0x100017B1C, symSize: 0x28 }
  - { offsetInCU: 0x2474F, offset: 0x2F80D, size: 0x8, addend: 0x0, symName: __ZNKSt3__116reverse_iteratorIPP6VarASTEdeB8ue170006Ev, symObjAddr: 0x104B0, symBinAddr: 0x100017B44, symSize: 0x28 }
  - { offsetInCU: 0x24784, offset: 0x2F842, size: 0x8, addend: 0x0, symName: __ZNSt3__116reverse_iteratorIPP6VarASTEppB8ue170006Ev, symObjAddr: 0x104D8, symBinAddr: 0x100017B6C, symSize: 0x20 }
  - { offsetInCU: 0x247AA, offset: 0x2F868, size: 0x8, addend: 0x0, symName: __ZNSt3__18_IterOpsINS_17_ClassicAlgPolicyEE25__validate_iter_referenceB8ue170006IRNS_16reverse_iteratorIPP6VarASTEEEEvv, symObjAddr: 0x104F8, symBinAddr: 0x100017B8C, symSize: 0x4 }
  - { offsetInCU: 0x247C8, offset: 0x2F886, size: 0x8, addend: 0x0, symName: __ZNSt3__118__unwrap_iter_implINS_16reverse_iteratorIPP6VarASTEELb0EE8__unwrapB8ue170006ES5_, symObjAddr: 0x104FC, symBinAddr: 0x100017B90, symSize: 0x24 }
  - { offsetInCU: 0x247F0, offset: 0x2F8AE, size: 0x8, addend: 0x0, symName: __ZNSt3__14pairINS_16reverse_iteratorIPP6VarASTEES5_EC1B8ue170006IS5_S5_LPv0EEEOT_OT0_, symObjAddr: 0x10520, symBinAddr: 0x100017BB4, symSize: 0x3C }
  - { offsetInCU: 0x2484F, offset: 0x2F90D, size: 0x8, addend: 0x0, symName: __ZNSt3__14pairINS_16reverse_iteratorIPP6VarASTEES5_EC2B8ue170006IS5_S5_LPv0EEEOT_OT0_, symObjAddr: 0x1055C, symBinAddr: 0x100017BF0, symSize: 0x34 }
  - { offsetInCU: 0x248AE, offset: 0x2F96C, size: 0x8, addend: 0x0, symName: __ZNSt3__118__unwrap_iter_implINS_16reverse_iteratorIPP6VarASTEELb0EE8__rewrapB8ue170006ES5_S5_, symObjAddr: 0x10590, symBinAddr: 0x100017C24, symSize: 0x2C }
  - { offsetInCU: 0x248DB, offset: 0x2F999, size: 0x8, addend: 0x0, symName: __ZNSt3__116reverse_iteratorIPP6VarASTEC2B8ue170006ES3_, symObjAddr: 0x105BC, symBinAddr: 0x100017C50, symSize: 0x28 }
  - { offsetInCU: 0x24913, offset: 0x2F9D1, size: 0x8, addend: 0x0, symName: __ZNSt3__114__split_bufferIP6VarASTRNS_9allocatorIS2_EEED2Ev, symObjAddr: 0x105E4, symBinAddr: 0x100017C78, symSize: 0x8C }
  - { offsetInCU: 0x2493F, offset: 0x2F9FD, size: 0x8, addend: 0x0, symName: __ZNSt3__114__split_bufferIP6VarASTRNS_9allocatorIS2_EEE5clearB8ue170006Ev, symObjAddr: 0x10670, symBinAddr: 0x100017D04, symSize: 0x28 }
  - { offsetInCU: 0x24965, offset: 0x2FA23, size: 0x8, addend: 0x0, symName: __ZNSt3__116allocator_traitsINS_9allocatorIP6VarASTEEE10deallocateB8ue170006ERS4_PS3_m, symObjAddr: 0x10698, symBinAddr: 0x100017D2C, symSize: 0x34 }
  - { offsetInCU: 0x249A7, offset: 0x2FA65, size: 0x8, addend: 0x0, symName: __ZNKSt3__114__split_bufferIP6VarASTRNS_9allocatorIS2_EEE8capacityB8ue170006Ev, symObjAddr: 0x106CC, symBinAddr: 0x100017D60, symSize: 0x40 }
  - { offsetInCU: 0x249CD, offset: 0x2FA8B, size: 0x8, addend: 0x0, symName: __ZNSt3__114__split_bufferIP6VarASTRNS_9allocatorIS2_EEE17__destruct_at_endB8ue170006EPS2_, symObjAddr: 0x1070C, symBinAddr: 0x100017DA0, symSize: 0x2C }
  - { offsetInCU: 0x24A01, offset: 0x2FABF, size: 0x8, addend: 0x0, symName: __ZNSt3__114__split_bufferIP6VarASTRNS_9allocatorIS2_EEE17__destruct_at_endB8ue170006EPS2_NS_17integral_constantIbLb0EEE, symObjAddr: 0x10738, symBinAddr: 0x100017DCC, symSize: 0x80 }
  - { offsetInCU: 0x24A41, offset: 0x2FAFF, size: 0x8, addend: 0x0, symName: __ZNSt3__116allocator_traitsINS_9allocatorIP6VarASTEEE7destroyB8ue170006IS3_vEEvRS4_PT_, symObjAddr: 0x107B8, symBinAddr: 0x100017E4C, symSize: 0x2C }
  - { offsetInCU: 0x24A7E, offset: 0x2FB3C, size: 0x8, addend: 0x0, symName: __ZNSt3__19allocatorIP6VarASTE7destroyB8ue170006EPS2_, symObjAddr: 0x107E4, symBinAddr: 0x100017E78, symSize: 0x14 }
  - { offsetInCU: 0x24AB2, offset: 0x2FB70, size: 0x8, addend: 0x0, symName: __ZNSt3__19allocatorIP6VarASTE10deallocateB8ue170006EPS2_m, symObjAddr: 0x107F8, symBinAddr: 0x100017E8C, symSize: 0x40 }
  - { offsetInCU: 0x24AF4, offset: 0x2FBB2, size: 0x8, addend: 0x0, symName: __ZNKSt3__114__split_bufferIP6VarASTRNS_9allocatorIS2_EEE9__end_capB8ue170006Ev, symObjAddr: 0x10838, symBinAddr: 0x100017ECC, symSize: 0x28 }
  - { offsetInCU: 0x24B1A, offset: 0x2FBD8, size: 0x8, addend: 0x0, symName: __ZNKSt3__117__compressed_pairIPP6VarASTRNS_9allocatorIS2_EEE5firstB8ue170006Ev, symObjAddr: 0x10860, symBinAddr: 0x100017EF4, symSize: 0x24 }
  - { offsetInCU: 0x24B40, offset: 0x2FBFE, size: 0x8, addend: 0x0, symName: __ZNSt3__16vectorIP6VarASTNS_9allocatorIS2_EEEC1B8ue170006Ev, symObjAddr: 0x10884, symBinAddr: 0x100017F18, symSize: 0x2C }
  - { offsetInCU: 0x24B6A, offset: 0x2FC28, size: 0x8, addend: 0x0, symName: __ZNSt3__16vectorIP6VarASTNS_9allocatorIS2_EEEC2B8ue170006Ev, symObjAddr: 0x108B0, symBinAddr: 0x100017F44, symSize: 0x4C }
  - { offsetInCU: 0x24B94, offset: 0x2FC52, size: 0x8, addend: 0x0, symName: __ZNSt3__117__compressed_pairIPP6VarASTNS_9allocatorIS2_EEEC1B8ue170006IDnNS_18__default_init_tagEEEOT_OT0_, symObjAddr: 0x108FC, symBinAddr: 0x100017F90, symSize: 0x3C }
  - { offsetInCU: 0x24BEC, offset: 0x2FCAA, size: 0x8, addend: 0x0, symName: __ZNSt3__117__compressed_pairIPP6VarASTNS_9allocatorIS2_EEEC2B8ue170006IDnNS_18__default_init_tagEEEOT_OT0_, symObjAddr: 0x10938, symBinAddr: 0x100017FCC, symSize: 0x40 }
  - { offsetInCU: 0x24C44, offset: 0x2FD02, size: 0x8, addend: 0x0, symName: __ZNSt3__122__compressed_pair_elemINS_9allocatorIP6VarASTEELi1ELb1EEC2B8ue170006ENS_18__default_init_tagE, symObjAddr: 0x10978, symBinAddr: 0x10001800C, symSize: 0x2C }
  - { offsetInCU: 0x24C78, offset: 0x2FD36, size: 0x8, addend: 0x0, symName: __ZNSt3__19allocatorIP6VarASTEC2B8ue170006Ev, symObjAddr: 0x109A4, symBinAddr: 0x100018038, symSize: 0x2C }
  - { offsetInCU: 0x24CA2, offset: 0x2FD60, size: 0x8, addend: 0x0, symName: __ZNSt3__116__non_trivial_ifILb1ENS_9allocatorIP6VarASTEEEC2B8ue170006Ev, symObjAddr: 0x109D0, symBinAddr: 0x100018064, symSize: 0x14 }
  - { offsetInCU: 0x24CCC, offset: 0x2FD8A, size: 0x8, addend: 0x0, symName: __ZNSt3__16vectorIP11OperatorASTNS_9allocatorIS2_EEE22__construct_one_at_endB8ue170006IJRKS2_EEEvDpOT_, symObjAddr: 0x109E4, symBinAddr: 0x100018078, symSize: 0x90 }
  - { offsetInCU: 0x24D1B, offset: 0x2FDD9, size: 0x8, addend: 0x0, symName: __ZNSt3__16vectorIP11OperatorASTNS_9allocatorIS2_EEE21__push_back_slow_pathIRKS2_EEvOT_, symObjAddr: 0x10A74, symBinAddr: 0x100018108, symSize: 0xD8 }
  - { offsetInCU: 0x24D79, offset: 0x2FE37, size: 0x8, addend: 0x0, symName: __ZNSt3__116allocator_traitsINS_9allocatorIP11OperatorASTEEE9constructB8ue170006IS3_JRKS3_EvEEvRS4_PT_DpOT0_, symObjAddr: 0x10B4C, symBinAddr: 0x1000181E0, symSize: 0x34 }
  - { offsetInCU: 0x24DD0, offset: 0x2FE8E, size: 0x8, addend: 0x0, symName: __ZNSt3__19allocatorIP11OperatorASTE9constructB8ue170006IS2_JRKS2_EEEvPT_DpOT0_, symObjAddr: 0x10B80, symBinAddr: 0x100018214, symSize: 0x28 }
  - { offsetInCU: 0x24E26, offset: 0x2FEE4, size: 0x8, addend: 0x0, symName: __ZNKSt3__16vectorIP11OperatorASTNS_9allocatorIS2_EEE11__recommendB8ue170006Em, symObjAddr: 0x10BA8, symBinAddr: 0x10001823C, symSize: 0xB4 }
  - { offsetInCU: 0x24E7B, offset: 0x2FF39, size: 0x8, addend: 0x0, symName: __ZNSt3__114__split_bufferIP11OperatorASTRNS_9allocatorIS2_EEEC1EmmS5_, symObjAddr: 0x10C5C, symBinAddr: 0x1000182F0, symSize: 0x44 }
  - { offsetInCU: 0x24ED1, offset: 0x2FF8F, size: 0x8, addend: 0x0, symName: __ZNSt3__114__split_bufferIP11OperatorASTRNS_9allocatorIS2_EEED1Ev, symObjAddr: 0x10DB0, symBinAddr: 0x100018444, symSize: 0x2C }
  - { offsetInCU: 0x24EFD, offset: 0x2FFBB, size: 0x8, addend: 0x0, symName: __ZNSt3__114__split_bufferIP11OperatorASTRNS_9allocatorIS2_EEEC2EmmS5_, symObjAddr: 0x10DDC, symBinAddr: 0x100018470, symSize: 0xD4 }
  - { offsetInCU: 0x24F71, offset: 0x3002F, size: 0x8, addend: 0x0, symName: __ZNSt3__117__compressed_pairIPP11OperatorASTRNS_9allocatorIS2_EEEC1B8ue170006IDnS6_EEOT_OT0_, symObjAddr: 0x10EB0, symBinAddr: 0x100018544, symSize: 0x3C }
  - { offsetInCU: 0x24FC9, offset: 0x30087, size: 0x8, addend: 0x0, symName: __ZNSt3__114__split_bufferIP11OperatorASTRNS_9allocatorIS2_EEE7__allocB8ue170006Ev, symObjAddr: 0x10EEC, symBinAddr: 0x100018580, symSize: 0x28 }
  - { offsetInCU: 0x24FEF, offset: 0x300AD, size: 0x8, addend: 0x0, symName: __ZNSt3__114__split_bufferIP11OperatorASTRNS_9allocatorIS2_EEE9__end_capB8ue170006Ev, symObjAddr: 0x10F14, symBinAddr: 0x1000185A8, symSize: 0x28 }
  - { offsetInCU: 0x25015, offset: 0x300D3, size: 0x8, addend: 0x0, symName: __ZNSt3__117__compressed_pairIPP11OperatorASTRNS_9allocatorIS2_EEEC2B8ue170006IDnS6_EEOT_OT0_, symObjAddr: 0x10F3C, symBinAddr: 0x1000185D0, symSize: 0x48 }
  - { offsetInCU: 0x2506D, offset: 0x3012B, size: 0x8, addend: 0x0, symName: __ZNSt3__122__compressed_pair_elemIRNS_9allocatorIP11OperatorASTEELi1ELb0EEC2B8ue170006IS5_vEEOT_, symObjAddr: 0x10F84, symBinAddr: 0x100018618, symSize: 0x20 }
  - { offsetInCU: 0x250AF, offset: 0x3016D, size: 0x8, addend: 0x0, symName: __ZNSt3__117__compressed_pairIPP11OperatorASTRNS_9allocatorIS2_EEE6secondB8ue170006Ev, symObjAddr: 0x10FA4, symBinAddr: 0x100018638, symSize: 0x28 }
  - { offsetInCU: 0x250D5, offset: 0x30193, size: 0x8, addend: 0x0, symName: __ZNSt3__122__compressed_pair_elemIRNS_9allocatorIP11OperatorASTEELi1ELb0EE5__getB8ue170006Ev, symObjAddr: 0x10FCC, symBinAddr: 0x100018660, symSize: 0x18 }
  - { offsetInCU: 0x250FB, offset: 0x301B9, size: 0x8, addend: 0x0, symName: __ZNSt3__117__compressed_pairIPP11OperatorASTRNS_9allocatorIS2_EEE5firstB8ue170006Ev, symObjAddr: 0x10FE4, symBinAddr: 0x100018678, symSize: 0x24 }
  - { offsetInCU: 0x25121, offset: 0x301DF, size: 0x8, addend: 0x0, symName: __ZNSt3__116reverse_iteratorIPP11OperatorASTEC1B8ue170006ES3_, symObjAddr: 0x11080, symBinAddr: 0x100018714, symSize: 0x34 }
  - { offsetInCU: 0x25159, offset: 0x30217, size: 0x8, addend: 0x0, symName: __ZNKSt3__116reverse_iteratorIPP11OperatorASTE4baseB8ue170006Ev, symObjAddr: 0x110B4, symBinAddr: 0x100018748, symSize: 0x18 }
  - { offsetInCU: 0x25198, offset: 0x30256, size: 0x8, addend: 0x0, symName: __ZNKSt3__111__move_loopINS_17_ClassicAlgPolicyEEclB8ue170006INS_16reverse_iteratorIPP11OperatorASTEES8_S8_EENS_4pairIT_T1_EESA_T0_SB_, symObjAddr: 0x113F8, symBinAddr: 0x100018A8C, symSize: 0xA0 }
  - { offsetInCU: 0x25208, offset: 0x302C6, size: 0x8, addend: 0x0, symName: __ZNSt3__18_IterOpsINS_17_ClassicAlgPolicyEE11__iter_moveB8ue170006IRNS_16reverse_iteratorIPP11OperatorASTEEEENS_9enable_ifIXsr12is_referenceIDTdeclsr3stdE7declvalIRT_EEEEE5valueEDTclsr3stdE4movedeclsr3stdE7declvalISC_EEEEE4typeEOSB_, symObjAddr: 0x1162C, symBinAddr: 0x100018CC0, symSize: 0x28 }
  - { offsetInCU: 0x25234, offset: 0x302F2, size: 0x8, addend: 0x0, symName: __ZNKSt3__116reverse_iteratorIPP11OperatorASTEdeB8ue170006Ev, symObjAddr: 0x11654, symBinAddr: 0x100018CE8, symSize: 0x28 }
  - { offsetInCU: 0x25269, offset: 0x30327, size: 0x8, addend: 0x0, symName: __ZNSt3__116reverse_iteratorIPP11OperatorASTEppB8ue170006Ev, symObjAddr: 0x1167C, symBinAddr: 0x100018D10, symSize: 0x20 }
  - { offsetInCU: 0x2528F, offset: 0x3034D, size: 0x8, addend: 0x0, symName: __ZNSt3__18_IterOpsINS_17_ClassicAlgPolicyEE25__validate_iter_referenceB8ue170006IRNS_16reverse_iteratorIPP11OperatorASTEEEEvv, symObjAddr: 0x1169C, symBinAddr: 0x100018D30, symSize: 0x4 }
  - { offsetInCU: 0x252AD, offset: 0x3036B, size: 0x8, addend: 0x0, symName: __ZNSt3__118__unwrap_iter_implINS_16reverse_iteratorIPP11OperatorASTEELb0EE8__unwrapB8ue170006ES5_, symObjAddr: 0x116A0, symBinAddr: 0x100018D34, symSize: 0x24 }
  - { offsetInCU: 0x252D5, offset: 0x30393, size: 0x8, addend: 0x0, symName: __ZNSt3__14pairINS_16reverse_iteratorIPP11OperatorASTEES5_EC1B8ue170006IS5_S5_LPv0EEEOT_OT0_, symObjAddr: 0x116C4, symBinAddr: 0x100018D58, symSize: 0x3C }
  - { offsetInCU: 0x25334, offset: 0x303F2, size: 0x8, addend: 0x0, symName: __ZNSt3__14pairINS_16reverse_iteratorIPP11OperatorASTEES5_EC2B8ue170006IS5_S5_LPv0EEEOT_OT0_, symObjAddr: 0x11700, symBinAddr: 0x100018D94, symSize: 0x34 }
  - { offsetInCU: 0x25393, offset: 0x30451, size: 0x8, addend: 0x0, symName: __ZNSt3__118__unwrap_iter_implINS_16reverse_iteratorIPP11OperatorASTEELb0EE8__rewrapB8ue170006ES5_S5_, symObjAddr: 0x11734, symBinAddr: 0x100018DC8, symSize: 0x2C }
  - { offsetInCU: 0x253C0, offset: 0x3047E, size: 0x8, addend: 0x0, symName: __ZNSt3__116reverse_iteratorIPP11OperatorASTEC2B8ue170006ES3_, symObjAddr: 0x11760, symBinAddr: 0x100018DF4, symSize: 0x28 }
  - { offsetInCU: 0x253F8, offset: 0x304B6, size: 0x8, addend: 0x0, symName: __ZNSt3__114__split_bufferIP11OperatorASTRNS_9allocatorIS2_EEED2Ev, symObjAddr: 0x11788, symBinAddr: 0x100018E1C, symSize: 0x8C }
  - { offsetInCU: 0x25424, offset: 0x304E2, size: 0x8, addend: 0x0, symName: __ZNSt3__114__split_bufferIP11OperatorASTRNS_9allocatorIS2_EEE5clearB8ue170006Ev, symObjAddr: 0x11814, symBinAddr: 0x100018EA8, symSize: 0x28 }
  - { offsetInCU: 0x2544A, offset: 0x30508, size: 0x8, addend: 0x0, symName: __ZNKSt3__114__split_bufferIP11OperatorASTRNS_9allocatorIS2_EEE8capacityB8ue170006Ev, symObjAddr: 0x1183C, symBinAddr: 0x100018ED0, symSize: 0x40 }
  - { offsetInCU: 0x25470, offset: 0x3052E, size: 0x8, addend: 0x0, symName: __ZNSt3__114__split_bufferIP11OperatorASTRNS_9allocatorIS2_EEE17__destruct_at_endB8ue170006EPS2_, symObjAddr: 0x1187C, symBinAddr: 0x100018F10, symSize: 0x2C }
  - { offsetInCU: 0x254A4, offset: 0x30562, size: 0x8, addend: 0x0, symName: __ZNSt3__114__split_bufferIP11OperatorASTRNS_9allocatorIS2_EEE17__destruct_at_endB8ue170006EPS2_NS_17integral_constantIbLb0EEE, symObjAddr: 0x118A8, symBinAddr: 0x100018F3C, symSize: 0x80 }
  - { offsetInCU: 0x254E4, offset: 0x305A2, size: 0x8, addend: 0x0, symName: __ZNKSt3__114__split_bufferIP11OperatorASTRNS_9allocatorIS2_EEE9__end_capB8ue170006Ev, symObjAddr: 0x11928, symBinAddr: 0x100018FBC, symSize: 0x28 }
  - { offsetInCU: 0x2550A, offset: 0x305C8, size: 0x8, addend: 0x0, symName: __ZNKSt3__117__compressed_pairIPP11OperatorASTRNS_9allocatorIS2_EEE5firstB8ue170006Ev, symObjAddr: 0x11950, symBinAddr: 0x100018FE4, symSize: 0x24 }
  - { offsetInCU: 0x25530, offset: 0x305EE, size: 0x8, addend: 0x0, symName: __ZNSt3__16vectorIP11OperatorASTNS_9allocatorIS2_EEEC2B8ue170006Ev, symObjAddr: 0x11974, symBinAddr: 0x100019008, symSize: 0x4C }
  - { offsetInCU: 0x2555A, offset: 0x30618, size: 0x8, addend: 0x0, symName: __ZNSt3__117__compressed_pairIPP11OperatorASTNS_9allocatorIS2_EEEC1B8ue170006IDnNS_18__default_init_tagEEEOT_OT0_, symObjAddr: 0x119C0, symBinAddr: 0x100019054, symSize: 0x3C }
  - { offsetInCU: 0x255B2, offset: 0x30670, size: 0x8, addend: 0x0, symName: __ZNSt3__117__compressed_pairIPP11OperatorASTNS_9allocatorIS2_EEEC2B8ue170006IDnNS_18__default_init_tagEEEOT_OT0_, symObjAddr: 0x119FC, symBinAddr: 0x100019090, symSize: 0x40 }
  - { offsetInCU: 0x2560A, offset: 0x306C8, size: 0x8, addend: 0x0, symName: __ZNSt3__122__compressed_pair_elemINS_9allocatorIP11OperatorASTEELi1ELb1EEC2B8ue170006ENS_18__default_init_tagE, symObjAddr: 0x11A3C, symBinAddr: 0x1000190D0, symSize: 0x2C }
  - { offsetInCU: 0x2563E, offset: 0x306FC, size: 0x8, addend: 0x0, symName: __ZNSt3__19allocatorIP11OperatorASTEC2B8ue170006Ev, symObjAddr: 0x11A68, symBinAddr: 0x1000190FC, symSize: 0x2C }
  - { offsetInCU: 0x25668, offset: 0x30726, size: 0x8, addend: 0x0, symName: __ZNSt3__116__non_trivial_ifILb1ENS_9allocatorIP11OperatorASTEEEC2B8ue170006Ev, symObjAddr: 0x11A94, symBinAddr: 0x100019128, symSize: 0x14 }
  - { offsetInCU: 0x25692, offset: 0x30750, size: 0x8, addend: 0x0, symName: __ZNSt3__16vectorINS_12basic_stringIcNS_11char_traitsIcEENS_9allocatorIcEEEENS4_IS6_EEEC2B8ue170006Ev, symObjAddr: 0x11AA8, symBinAddr: 0x10001913C, symSize: 0x4C }
  - { offsetInCU: 0x256BC, offset: 0x3077A, size: 0x8, addend: 0x0, symName: __ZNSt3__117__compressed_pairIPNS_12basic_stringIcNS_11char_traitsIcEENS_9allocatorIcEEEENS4_IS6_EEEC1B8ue170006IDnNS_18__default_init_tagEEEOT_OT0_, symObjAddr: 0x11AF4, symBinAddr: 0x100019188, symSize: 0x3C }
  - { offsetInCU: 0x25714, offset: 0x307D2, size: 0x8, addend: 0x0, symName: __ZNSt3__117__compressed_pairIPNS_12basic_stringIcNS_11char_traitsIcEENS_9allocatorIcEEEENS4_IS6_EEEC2B8ue170006IDnNS_18__default_init_tagEEEOT_OT0_, symObjAddr: 0x11B30, symBinAddr: 0x1000191C4, symSize: 0x40 }
  - { offsetInCU: 0x2576C, offset: 0x3082A, size: 0x8, addend: 0x0, symName: __ZNSt3__122__compressed_pair_elemINS_9allocatorINS_12basic_stringIcNS_11char_traitsIcEENS1_IcEEEEEELi1ELb1EEC2B8ue170006ENS_18__default_init_tagE, symObjAddr: 0x11B70, symBinAddr: 0x100019204, symSize: 0x2C }
  - { offsetInCU: 0x257A0, offset: 0x3085E, size: 0x8, addend: 0x0, symName: __ZNSt3__19allocatorINS_12basic_stringIcNS_11char_traitsIcEENS0_IcEEEEEC2B8ue170006Ev, symObjAddr: 0x11B9C, symBinAddr: 0x100019230, symSize: 0x2C }
  - { offsetInCU: 0x257CA, offset: 0x30888, size: 0x8, addend: 0x0, symName: __ZNSt3__116__non_trivial_ifILb1ENS_9allocatorINS_12basic_stringIcNS_11char_traitsIcEENS1_IcEEEEEEEC2B8ue170006Ev, symObjAddr: 0x11BC8, symBinAddr: 0x10001925C, symSize: 0x14 }
  - { offsetInCU: 0x257F4, offset: 0x308B2, size: 0x8, addend: 0x0, symName: __ZNSt3__16vectorIP7TermASTNS_9allocatorIS2_EEE9__end_capB8ue170006Ev, symObjAddr: 0x11BDC, symBinAddr: 0x100019270, symSize: 0x28 }
  - { offsetInCU: 0x2581A, offset: 0x308D8, size: 0x8, addend: 0x0, symName: __ZNSt3__16vectorIP7TermASTNS_9allocatorIS2_EEE22__construct_one_at_endB8ue170006IJRKS2_EEEvDpOT_, symObjAddr: 0x11C04, symBinAddr: 0x100019298, symSize: 0x90 }
  - { offsetInCU: 0x25869, offset: 0x30927, size: 0x8, addend: 0x0, symName: __ZNSt3__16vectorIP7TermASTNS_9allocatorIS2_EEE21__push_back_slow_pathIRKS2_EEvOT_, symObjAddr: 0x11C94, symBinAddr: 0x100019328, symSize: 0xD8 }
  - { offsetInCU: 0x258C7, offset: 0x30985, size: 0x8, addend: 0x0, symName: __ZNSt3__117__compressed_pairIPP7TermASTNS_9allocatorIS2_EEE5firstB8ue170006Ev, symObjAddr: 0x11D6C, symBinAddr: 0x100019400, symSize: 0x24 }
  - { offsetInCU: 0x258ED, offset: 0x309AB, size: 0x8, addend: 0x0, symName: __ZNSt3__122__compressed_pair_elemIPP7TermASTLi0ELb0EE5__getB8ue170006Ev, symObjAddr: 0x11D90, symBinAddr: 0x100019424, symSize: 0x14 }
  - { offsetInCU: 0x2592C, offset: 0x309EA, size: 0x8, addend: 0x0, symName: __ZNSt3__16vectorIP7TermASTNS_9allocatorIS2_EEE21_ConstructTransactionC1B8ue170006ERS5_m, symObjAddr: 0x11DA4, symBinAddr: 0x100019438, symSize: 0x3C }
  - { offsetInCU: 0x25974, offset: 0x30A32, size: 0x8, addend: 0x0, symName: __ZNSt3__116allocator_traitsINS_9allocatorIP7TermASTEEE9constructB8ue170006IS3_JRKS3_EvEEvRS4_PT_DpOT0_, symObjAddr: 0x11DE0, symBinAddr: 0x100019474, symSize: 0x34 }
  - { offsetInCU: 0x259CB, offset: 0x30A89, size: 0x8, addend: 0x0, symName: __ZNSt3__16vectorIP7TermASTNS_9allocatorIS2_EEE21_ConstructTransactionD1B8ue170006Ev, symObjAddr: 0x11E14, symBinAddr: 0x1000194A8, symSize: 0x2C }
  - { offsetInCU: 0x259F5, offset: 0x30AB3, size: 0x8, addend: 0x0, symName: __ZNSt3__16vectorIP7TermASTNS_9allocatorIS2_EEE21_ConstructTransactionC2B8ue170006ERS5_m, symObjAddr: 0x11E40, symBinAddr: 0x1000194D4, symSize: 0x44 }
  - { offsetInCU: 0x25A3D, offset: 0x30AFB, size: 0x8, addend: 0x0, symName: __ZNSt3__19allocatorIP7TermASTE9constructB8ue170006IS2_JRKS2_EEEvPT_DpOT0_, symObjAddr: 0x11E84, symBinAddr: 0x100019518, symSize: 0x28 }
  - { offsetInCU: 0x25A93, offset: 0x30B51, size: 0x8, addend: 0x0, symName: __ZNSt3__16vectorIP7TermASTNS_9allocatorIS2_EEE21_ConstructTransactionD2B8ue170006Ev, symObjAddr: 0x11EAC, symBinAddr: 0x100019540, symSize: 0x20 }
  - { offsetInCU: 0x25ABD, offset: 0x30B7B, size: 0x8, addend: 0x0, symName: __ZNKSt3__16vectorIP7TermASTNS_9allocatorIS2_EEE11__recommendB8ue170006Em, symObjAddr: 0x11ECC, symBinAddr: 0x100019560, symSize: 0xB4 }
  - { offsetInCU: 0x25B12, offset: 0x30BD0, size: 0x8, addend: 0x0, symName: __ZNSt3__114__split_bufferIP7TermASTRNS_9allocatorIS2_EEEC1EmmS5_, symObjAddr: 0x11F80, symBinAddr: 0x100019614, symSize: 0x44 }
  - { offsetInCU: 0x25B68, offset: 0x30C26, size: 0x8, addend: 0x0, symName: __ZNSt3__114__split_bufferIP7TermASTRNS_9allocatorIS2_EEED1Ev, symObjAddr: 0x120D4, symBinAddr: 0x100019768, symSize: 0x2C }
  - { offsetInCU: 0x25B94, offset: 0x30C52, size: 0x8, addend: 0x0, symName: __ZNKSt3__16vectorIP7TermASTNS_9allocatorIS2_EEE8max_sizeEv, symObjAddr: 0x12100, symBinAddr: 0x100019794, symSize: 0x60 }
  - { offsetInCU: 0x25BBC, offset: 0x30C7A, size: 0x8, addend: 0x0, symName: __ZNKSt3__16vectorIP7TermASTNS_9allocatorIS2_EEE20__throw_length_errorB8ue170006Ev, symObjAddr: 0x12160, symBinAddr: 0x1000197F4, symSize: 0x1C }
  - { offsetInCU: 0x25BEC, offset: 0x30CAA, size: 0x8, addend: 0x0, symName: __ZNSt3__116allocator_traitsINS_9allocatorIP7TermASTEEE8max_sizeB8ue170006IS4_vEEmRKS4_, symObjAddr: 0x1217C, symBinAddr: 0x100019810, symSize: 0x24 }
  - { offsetInCU: 0x25C1A, offset: 0x30CD8, size: 0x8, addend: 0x0, symName: __ZNKSt3__16vectorIP7TermASTNS_9allocatorIS2_EEE7__allocB8ue170006Ev, symObjAddr: 0x121A0, symBinAddr: 0x100019834, symSize: 0x28 }
  - { offsetInCU: 0x25C40, offset: 0x30CFE, size: 0x8, addend: 0x0, symName: __ZNKSt3__19allocatorIP7TermASTE8max_sizeB8ue170006Ev, symObjAddr: 0x121C8, symBinAddr: 0x10001985C, symSize: 0x14 }
  - { offsetInCU: 0x25C66, offset: 0x30D24, size: 0x8, addend: 0x0, symName: __ZNKSt3__117__compressed_pairIPP7TermASTNS_9allocatorIS2_EEE6secondB8ue170006Ev, symObjAddr: 0x121DC, symBinAddr: 0x100019870, symSize: 0x24 }
  - { offsetInCU: 0x25C8C, offset: 0x30D4A, size: 0x8, addend: 0x0, symName: __ZNKSt3__122__compressed_pair_elemINS_9allocatorIP7TermASTEELi1ELb1EE5__getB8ue170006Ev, symObjAddr: 0x12200, symBinAddr: 0x100019894, symSize: 0x14 }
  - { offsetInCU: 0x25CB2, offset: 0x30D70, size: 0x8, addend: 0x0, symName: __ZNSt3__114__split_bufferIP7TermASTRNS_9allocatorIS2_EEEC2EmmS5_, symObjAddr: 0x12214, symBinAddr: 0x1000198A8, symSize: 0xD4 }
  - { offsetInCU: 0x25D26, offset: 0x30DE4, size: 0x8, addend: 0x0, symName: __ZNSt3__117__compressed_pairIPP7TermASTRNS_9allocatorIS2_EEEC1B8ue170006IDnS6_EEOT_OT0_, symObjAddr: 0x122E8, symBinAddr: 0x10001997C, symSize: 0x3C }
  - { offsetInCU: 0x25D7E, offset: 0x30E3C, size: 0x8, addend: 0x0, symName: __ZNSt3__114__split_bufferIP7TermASTRNS_9allocatorIS2_EEE7__allocB8ue170006Ev, symObjAddr: 0x12364, symBinAddr: 0x1000199F8, symSize: 0x28 }
  - { offsetInCU: 0x25DA4, offset: 0x30E62, size: 0x8, addend: 0x0, symName: __ZNSt3__114__split_bufferIP7TermASTRNS_9allocatorIS2_EEE9__end_capB8ue170006Ev, symObjAddr: 0x1238C, symBinAddr: 0x100019A20, symSize: 0x28 }
  - { offsetInCU: 0x25DCA, offset: 0x30E88, size: 0x8, addend: 0x0, symName: __ZNSt3__117__compressed_pairIPP7TermASTRNS_9allocatorIS2_EEEC2B8ue170006IDnS6_EEOT_OT0_, symObjAddr: 0x123B4, symBinAddr: 0x100019A48, symSize: 0x48 }
  - { offsetInCU: 0x25E22, offset: 0x30EE0, size: 0x8, addend: 0x0, symName: __ZNSt3__122__compressed_pair_elemIRNS_9allocatorIP7TermASTEELi1ELb0EEC2B8ue170006IS5_vEEOT_, symObjAddr: 0x123FC, symBinAddr: 0x100019A90, symSize: 0x20 }
  - { offsetInCU: 0x25E64, offset: 0x30F22, size: 0x8, addend: 0x0, symName: __ZNSt3__19allocatorIP7TermASTE8allocateB8ue170006Em, symObjAddr: 0x1241C, symBinAddr: 0x100019AB0, symSize: 0x58 }
  - { offsetInCU: 0x25E98, offset: 0x30F56, size: 0x8, addend: 0x0, symName: __ZNSt3__117__compressed_pairIPP7TermASTRNS_9allocatorIS2_EEE6secondB8ue170006Ev, symObjAddr: 0x12474, symBinAddr: 0x100019B08, symSize: 0x28 }
  - { offsetInCU: 0x25EBE, offset: 0x30F7C, size: 0x8, addend: 0x0, symName: __ZNSt3__122__compressed_pair_elemIRNS_9allocatorIP7TermASTEELi1ELb0EE5__getB8ue170006Ev, symObjAddr: 0x1249C, symBinAddr: 0x100019B30, symSize: 0x18 }
  - { offsetInCU: 0x25EE4, offset: 0x30FA2, size: 0x8, addend: 0x0, symName: __ZNSt3__117__compressed_pairIPP7TermASTRNS_9allocatorIS2_EEE5firstB8ue170006Ev, symObjAddr: 0x124B4, symBinAddr: 0x100019B48, symSize: 0x24 }
  - { offsetInCU: 0x25F0A, offset: 0x30FC8, size: 0x8, addend: 0x0, symName: __ZNSt3__116reverse_iteratorIPP7TermASTEC1B8ue170006ES3_, symObjAddr: 0x12550, symBinAddr: 0x100019BE4, symSize: 0x34 }
  - { offsetInCU: 0x25F42, offset: 0x31000, size: 0x8, addend: 0x0, symName: __ZNKSt3__116reverse_iteratorIPP7TermASTE4baseB8ue170006Ev, symObjAddr: 0x12584, symBinAddr: 0x100019C18, symSize: 0x18 }
  - { offsetInCU: 0x25F68, offset: 0x31026, size: 0x8, addend: 0x0, symName: __ZNKSt3__16vectorIP7TermASTNS_9allocatorIS2_EEE14__annotate_newB8ue170006Em, symObjAddr: 0x125D8, symBinAddr: 0x100019C6C, symSize: 0xAC }
  - { offsetInCU: 0x25FB6, offset: 0x31074, size: 0x8, addend: 0x0, symName: __ZNKSt3__111__move_loopINS_17_ClassicAlgPolicyEEclB8ue170006INS_16reverse_iteratorIPP7TermASTEES8_S8_EENS_4pairIT_T1_EESA_T0_SB_, symObjAddr: 0x12974, symBinAddr: 0x10001A008, symSize: 0xA0 }
  - { offsetInCU: 0x26026, offset: 0x310E4, size: 0x8, addend: 0x0, symName: __ZNSt3__18_IterOpsINS_17_ClassicAlgPolicyEE11__iter_moveB8ue170006IRNS_16reverse_iteratorIPP7TermASTEEEENS_9enable_ifIXsr12is_referenceIDTdeclsr3stdE7declvalIRT_EEEEE5valueEDTclsr3stdE4movedeclsr3stdE7declvalISC_EEEEE4typeEOSB_, symObjAddr: 0x12BA8, symBinAddr: 0x10001A23C, symSize: 0x28 }
  - { offsetInCU: 0x26052, offset: 0x31110, size: 0x8, addend: 0x0, symName: __ZNKSt3__116reverse_iteratorIPP7TermASTEdeB8ue170006Ev, symObjAddr: 0x12BD0, symBinAddr: 0x10001A264, symSize: 0x28 }
  - { offsetInCU: 0x26087, offset: 0x31145, size: 0x8, addend: 0x0, symName: __ZNSt3__116reverse_iteratorIPP7TermASTEppB8ue170006Ev, symObjAddr: 0x12BF8, symBinAddr: 0x10001A28C, symSize: 0x20 }
  - { offsetInCU: 0x260AD, offset: 0x3116B, size: 0x8, addend: 0x0, symName: __ZNSt3__18_IterOpsINS_17_ClassicAlgPolicyEE25__validate_iter_referenceB8ue170006IRNS_16reverse_iteratorIPP7TermASTEEEEvv, symObjAddr: 0x12C18, symBinAddr: 0x10001A2AC, symSize: 0x4 }
  - { offsetInCU: 0x260CB, offset: 0x31189, size: 0x8, addend: 0x0, symName: __ZNSt3__118__unwrap_iter_implINS_16reverse_iteratorIPP7TermASTEELb0EE8__unwrapB8ue170006ES5_, symObjAddr: 0x12C1C, symBinAddr: 0x10001A2B0, symSize: 0x24 }
  - { offsetInCU: 0x260F3, offset: 0x311B1, size: 0x8, addend: 0x0, symName: __ZNSt3__14pairINS_16reverse_iteratorIPP7TermASTEES5_EC1B8ue170006IS5_S5_LPv0EEEOT_OT0_, symObjAddr: 0x12C40, symBinAddr: 0x10001A2D4, symSize: 0x3C }
  - { offsetInCU: 0x26152, offset: 0x31210, size: 0x8, addend: 0x0, symName: __ZNSt3__14pairINS_16reverse_iteratorIPP7TermASTEES5_EC2B8ue170006IS5_S5_LPv0EEEOT_OT0_, symObjAddr: 0x12C7C, symBinAddr: 0x10001A310, symSize: 0x34 }
  - { offsetInCU: 0x261B1, offset: 0x3126F, size: 0x8, addend: 0x0, symName: __ZNSt3__118__unwrap_iter_implINS_16reverse_iteratorIPP7TermASTEELb0EE8__rewrapB8ue170006ES5_S5_, symObjAddr: 0x12CB0, symBinAddr: 0x10001A344, symSize: 0x2C }
  - { offsetInCU: 0x261DE, offset: 0x3129C, size: 0x8, addend: 0x0, symName: __ZNSt3__116reverse_iteratorIPP7TermASTEC2B8ue170006ES3_, symObjAddr: 0x12CDC, symBinAddr: 0x10001A370, symSize: 0x28 }
  - { offsetInCU: 0x26216, offset: 0x312D4, size: 0x8, addend: 0x0, symName: __ZNSt3__114__split_bufferIP7TermASTRNS_9allocatorIS2_EEED2Ev, symObjAddr: 0x12D04, symBinAddr: 0x10001A398, symSize: 0x8C }
  - { offsetInCU: 0x26242, offset: 0x31300, size: 0x8, addend: 0x0, symName: __ZNSt3__114__split_bufferIP7TermASTRNS_9allocatorIS2_EEE5clearB8ue170006Ev, symObjAddr: 0x12D90, symBinAddr: 0x10001A424, symSize: 0x28 }
  - { offsetInCU: 0x26268, offset: 0x31326, size: 0x8, addend: 0x0, symName: __ZNKSt3__114__split_bufferIP7TermASTRNS_9allocatorIS2_EEE8capacityB8ue170006Ev, symObjAddr: 0x12DB8, symBinAddr: 0x10001A44C, symSize: 0x40 }
  - { offsetInCU: 0x2628E, offset: 0x3134C, size: 0x8, addend: 0x0, symName: __ZNSt3__114__split_bufferIP7TermASTRNS_9allocatorIS2_EEE17__destruct_at_endB8ue170006EPS2_, symObjAddr: 0x12DF8, symBinAddr: 0x10001A48C, symSize: 0x2C }
  - { offsetInCU: 0x262C2, offset: 0x31380, size: 0x8, addend: 0x0, symName: __ZNSt3__114__split_bufferIP7TermASTRNS_9allocatorIS2_EEE17__destruct_at_endB8ue170006EPS2_NS_17integral_constantIbLb0EEE, symObjAddr: 0x12E24, symBinAddr: 0x10001A4B8, symSize: 0x80 }
  - { offsetInCU: 0x26302, offset: 0x313C0, size: 0x8, addend: 0x0, symName: __ZNKSt3__114__split_bufferIP7TermASTRNS_9allocatorIS2_EEE9__end_capB8ue170006Ev, symObjAddr: 0x12EA4, symBinAddr: 0x10001A538, symSize: 0x28 }
  - { offsetInCU: 0x26328, offset: 0x313E6, size: 0x8, addend: 0x0, symName: __ZNKSt3__117__compressed_pairIPP7TermASTRNS_9allocatorIS2_EEE5firstB8ue170006Ev, symObjAddr: 0x12ECC, symBinAddr: 0x10001A560, symSize: 0x24 }
  - { offsetInCU: 0x2634E, offset: 0x3140C, size: 0x8, addend: 0x0, symName: __ZNSt3__16vectorIcNS_9allocatorIcEEE9__end_capB8ue170006Ev, symObjAddr: 0x12EF0, symBinAddr: 0x10001A584, symSize: 0x28 }
  - { offsetInCU: 0x26379, offset: 0x31437, size: 0x8, addend: 0x0, symName: __ZNSt3__16vectorIcNS_9allocatorIcEEE22__construct_one_at_endB8ue170006IJcEEEvDpOT_, symObjAddr: 0x12F18, symBinAddr: 0x10001A5AC, symSize: 0x90 }
  - { offsetInCU: 0x263C8, offset: 0x31486, size: 0x8, addend: 0x0, symName: __ZNSt3__16vectorIcNS_9allocatorIcEEE21__push_back_slow_pathIcEEvOT_, symObjAddr: 0x12FA8, symBinAddr: 0x10001A63C, symSize: 0xD8 }
  - { offsetInCU: 0x26426, offset: 0x314E4, size: 0x8, addend: 0x0, symName: __ZNSt3__117__compressed_pairIPcNS_9allocatorIcEEE5firstB8ue170006Ev, symObjAddr: 0x13080, symBinAddr: 0x10001A714, symSize: 0x24 }
  - { offsetInCU: 0x2644C, offset: 0x3150A, size: 0x8, addend: 0x0, symName: __ZNSt3__122__compressed_pair_elemIPcLi0ELb0EE5__getB8ue170006Ev, symObjAddr: 0x130A4, symBinAddr: 0x10001A738, symSize: 0x14 }
  - { offsetInCU: 0x2648B, offset: 0x31549, size: 0x8, addend: 0x0, symName: __ZNSt3__16vectorIcNS_9allocatorIcEEE21_ConstructTransactionC1B8ue170006ERS3_m, symObjAddr: 0x130B8, symBinAddr: 0x10001A74C, symSize: 0x3C }
  - { offsetInCU: 0x264D3, offset: 0x31591, size: 0x8, addend: 0x0, symName: __ZNSt3__116allocator_traitsINS_9allocatorIcEEE9constructB8ue170006IcJcEvEEvRS2_PT_DpOT0_, symObjAddr: 0x130F4, symBinAddr: 0x10001A788, symSize: 0x34 }
  - { offsetInCU: 0x2652A, offset: 0x315E8, size: 0x8, addend: 0x0, symName: __ZNSt3__16vectorIcNS_9allocatorIcEEE21_ConstructTransactionD1B8ue170006Ev, symObjAddr: 0x13128, symBinAddr: 0x10001A7BC, symSize: 0x2C }
  - { offsetInCU: 0x26554, offset: 0x31612, size: 0x8, addend: 0x0, symName: __ZNSt3__16vectorIcNS_9allocatorIcEEE21_ConstructTransactionC2B8ue170006ERS3_m, symObjAddr: 0x13154, symBinAddr: 0x10001A7E8, symSize: 0x44 }
  - { offsetInCU: 0x2659C, offset: 0x3165A, size: 0x8, addend: 0x0, symName: __ZNSt3__19allocatorIcE9constructB8ue170006IcJcEEEvPT_DpOT0_, symObjAddr: 0x13198, symBinAddr: 0x10001A82C, symSize: 0x28 }
  - { offsetInCU: 0x265F2, offset: 0x316B0, size: 0x8, addend: 0x0, symName: __ZNSt3__16vectorIcNS_9allocatorIcEEE21_ConstructTransactionD2B8ue170006Ev, symObjAddr: 0x131C0, symBinAddr: 0x10001A854, symSize: 0x20 }
  - { offsetInCU: 0x2661C, offset: 0x316DA, size: 0x8, addend: 0x0, symName: __ZNKSt3__16vectorIcNS_9allocatorIcEEE11__recommendB8ue170006Em, symObjAddr: 0x131E0, symBinAddr: 0x10001A874, symSize: 0xB4 }
  - { offsetInCU: 0x26671, offset: 0x3172F, size: 0x8, addend: 0x0, symName: __ZNSt3__114__split_bufferIcRNS_9allocatorIcEEEC1EmmS3_, symObjAddr: 0x13294, symBinAddr: 0x10001A928, symSize: 0x44 }
  - { offsetInCU: 0x266C7, offset: 0x31785, size: 0x8, addend: 0x0, symName: __ZNSt3__114__split_bufferIcRNS_9allocatorIcEEED1Ev, symObjAddr: 0x133E8, symBinAddr: 0x10001AA7C, symSize: 0x2C }
  - { offsetInCU: 0x266F3, offset: 0x317B1, size: 0x8, addend: 0x0, symName: __ZNKSt3__16vectorIcNS_9allocatorIcEEE8max_sizeEv, symObjAddr: 0x13414, symBinAddr: 0x10001AAA8, symSize: 0x60 }
  - { offsetInCU: 0x2671B, offset: 0x317D9, size: 0x8, addend: 0x0, symName: __ZNKSt3__16vectorIcNS_9allocatorIcEEE20__throw_length_errorB8ue170006Ev, symObjAddr: 0x13474, symBinAddr: 0x10001AB08, symSize: 0x1C }
  - { offsetInCU: 0x2674B, offset: 0x31809, size: 0x8, addend: 0x0, symName: __ZNKSt3__16vectorIcNS_9allocatorIcEEE7__allocB8ue170006Ev, symObjAddr: 0x134B4, symBinAddr: 0x10001AB24, symSize: 0x28 }
  - { offsetInCU: 0x26771, offset: 0x3182F, size: 0x8, addend: 0x0, symName: __ZNKSt3__117__compressed_pairIPcNS_9allocatorIcEEE6secondB8ue170006Ev, symObjAddr: 0x134F0, symBinAddr: 0x10001AB4C, symSize: 0x24 }
  - { offsetInCU: 0x26797, offset: 0x31855, size: 0x8, addend: 0x0, symName: __ZNSt3__114__split_bufferIcRNS_9allocatorIcEEEC2EmmS3_, symObjAddr: 0x13528, symBinAddr: 0x10001AB70, symSize: 0xD4 }
  - { offsetInCU: 0x2680B, offset: 0x318C9, size: 0x8, addend: 0x0, symName: __ZNSt3__117__compressed_pairIPcRNS_9allocatorIcEEEC1B8ue170006IDnS4_EEOT_OT0_, symObjAddr: 0x135FC, symBinAddr: 0x10001AC44, symSize: 0x3C }
  - { offsetInCU: 0x26863, offset: 0x31921, size: 0x8, addend: 0x0, symName: __ZNSt3__114__split_bufferIcRNS_9allocatorIcEEE7__allocB8ue170006Ev, symObjAddr: 0x13678, symBinAddr: 0x10001AC80, symSize: 0x28 }
  - { offsetInCU: 0x26889, offset: 0x31947, size: 0x8, addend: 0x0, symName: __ZNSt3__114__split_bufferIcRNS_9allocatorIcEEE9__end_capB8ue170006Ev, symObjAddr: 0x136A0, symBinAddr: 0x10001ACA8, symSize: 0x28 }
  - { offsetInCU: 0x268AF, offset: 0x3196D, size: 0x8, addend: 0x0, symName: __ZNSt3__117__compressed_pairIPcRNS_9allocatorIcEEEC2B8ue170006IDnS4_EEOT_OT0_, symObjAddr: 0x136C8, symBinAddr: 0x10001ACD0, symSize: 0x48 }
  - { offsetInCU: 0x26907, offset: 0x319C5, size: 0x8, addend: 0x0, symName: __ZNSt3__122__compressed_pair_elemIRNS_9allocatorIcEELi1ELb0EEC2B8ue170006IS3_vEEOT_, symObjAddr: 0x13710, symBinAddr: 0x10001AD18, symSize: 0x20 }
  - { offsetInCU: 0x26949, offset: 0x31A07, size: 0x8, addend: 0x0, symName: __ZNSt3__117__compressed_pairIPcRNS_9allocatorIcEEE6secondB8ue170006Ev, symObjAddr: 0x13788, symBinAddr: 0x10001AD38, symSize: 0x28 }
  - { offsetInCU: 0x2696F, offset: 0x31A2D, size: 0x8, addend: 0x0, symName: __ZNSt3__122__compressed_pair_elemIRNS_9allocatorIcEELi1ELb0EE5__getB8ue170006Ev, symObjAddr: 0x137B0, symBinAddr: 0x10001AD60, symSize: 0x18 }
  - { offsetInCU: 0x26995, offset: 0x31A53, size: 0x8, addend: 0x0, symName: __ZNSt3__117__compressed_pairIPcRNS_9allocatorIcEEE5firstB8ue170006Ev, symObjAddr: 0x137C8, symBinAddr: 0x10001AD78, symSize: 0x24 }
  - { offsetInCU: 0x269BB, offset: 0x31A79, size: 0x8, addend: 0x0, symName: __ZNSt3__116reverse_iteratorIPcEC1B8ue170006ES1_, symObjAddr: 0x13864, symBinAddr: 0x10001AE14, symSize: 0x34 }
  - { offsetInCU: 0x269F3, offset: 0x31AB1, size: 0x8, addend: 0x0, symName: __ZNKSt3__116reverse_iteratorIPcE4baseB8ue170006Ev, symObjAddr: 0x13898, symBinAddr: 0x10001AE48, symSize: 0x18 }
  - { offsetInCU: 0x26A19, offset: 0x31AD7, size: 0x8, addend: 0x0, symName: __ZNKSt3__16vectorIcNS_9allocatorIcEEE14__annotate_newB8ue170006Em, symObjAddr: 0x138EC, symBinAddr: 0x10001AE9C, symSize: 0xAC }
  - { offsetInCU: 0x26A67, offset: 0x31B25, size: 0x8, addend: 0x0, symName: __ZNKSt3__111__move_loopINS_17_ClassicAlgPolicyEEclB8ue170006INS_16reverse_iteratorIPcEES6_S6_EENS_4pairIT_T1_EES8_T0_S9_, symObjAddr: 0x13C88, symBinAddr: 0x10001B238, symSize: 0xA0 }
  - { offsetInCU: 0x26AD2, offset: 0x31B90, size: 0x8, addend: 0x0, symName: __ZNSt3__18_IterOpsINS_17_ClassicAlgPolicyEE11__iter_moveB8ue170006IRNS_16reverse_iteratorIPcEEEENS_9enable_ifIXsr12is_referenceIDTdeclsr3stdE7declvalIRT_EEEEE5valueEDTclsr3stdE4movedeclsr3stdE7declvalISA_EEEEE4typeEOS9_, symObjAddr: 0x13EBC, symBinAddr: 0x10001B46C, symSize: 0x28 }
  - { offsetInCU: 0x26AFE, offset: 0x31BBC, size: 0x8, addend: 0x0, symName: __ZNKSt3__116reverse_iteratorIPcEdeB8ue170006Ev, symObjAddr: 0x13EE4, symBinAddr: 0x10001B494, symSize: 0x28 }
  - { offsetInCU: 0x26B33, offset: 0x31BF1, size: 0x8, addend: 0x0, symName: __ZNSt3__116reverse_iteratorIPcEppB8ue170006Ev, symObjAddr: 0x13F0C, symBinAddr: 0x10001B4BC, symSize: 0x20 }
  - { offsetInCU: 0x26B59, offset: 0x31C17, size: 0x8, addend: 0x0, symName: __ZNSt3__18_IterOpsINS_17_ClassicAlgPolicyEE25__validate_iter_referenceB8ue170006IRNS_16reverse_iteratorIPcEEEEvv, symObjAddr: 0x13F2C, symBinAddr: 0x10001B4DC, symSize: 0x4 }
  - { offsetInCU: 0x26B77, offset: 0x31C35, size: 0x8, addend: 0x0, symName: __ZNSt3__118__unwrap_iter_implINS_16reverse_iteratorIPcEELb0EE8__unwrapB8ue170006ES3_, symObjAddr: 0x13F30, symBinAddr: 0x10001B4E0, symSize: 0x24 }
  - { offsetInCU: 0x26B9F, offset: 0x31C5D, size: 0x8, addend: 0x0, symName: __ZNSt3__14pairINS_16reverse_iteratorIPcEES3_EC1B8ue170006IS3_S3_LPv0EEEOT_OT0_, symObjAddr: 0x13F54, symBinAddr: 0x10001B504, symSize: 0x3C }
  - { offsetInCU: 0x26BFE, offset: 0x31CBC, size: 0x8, addend: 0x0, symName: __ZNSt3__14pairINS_16reverse_iteratorIPcEES3_EC2B8ue170006IS3_S3_LPv0EEEOT_OT0_, symObjAddr: 0x13F90, symBinAddr: 0x10001B540, symSize: 0x34 }
  - { offsetInCU: 0x26C5D, offset: 0x31D1B, size: 0x8, addend: 0x0, symName: __ZNSt3__118__unwrap_iter_implINS_16reverse_iteratorIPcEELb0EE8__rewrapB8ue170006ES3_S3_, symObjAddr: 0x13FC4, symBinAddr: 0x10001B574, symSize: 0x2C }
  - { offsetInCU: 0x26C8A, offset: 0x31D48, size: 0x8, addend: 0x0, symName: __ZNSt3__116reverse_iteratorIPcEC2B8ue170006ES1_, symObjAddr: 0x13FF0, symBinAddr: 0x10001B5A0, symSize: 0x28 }
  - { offsetInCU: 0x26CC2, offset: 0x31D80, size: 0x8, addend: 0x0, symName: __ZNSt3__114__split_bufferIcRNS_9allocatorIcEEED2Ev, symObjAddr: 0x14018, symBinAddr: 0x10001B5C8, symSize: 0x8C }
  - { offsetInCU: 0x26CEE, offset: 0x31DAC, size: 0x8, addend: 0x0, symName: __ZNSt3__114__split_bufferIcRNS_9allocatorIcEEE5clearB8ue170006Ev, symObjAddr: 0x140A4, symBinAddr: 0x10001B654, symSize: 0x28 }
  - { offsetInCU: 0x26D14, offset: 0x31DD2, size: 0x8, addend: 0x0, symName: __ZNKSt3__114__split_bufferIcRNS_9allocatorIcEEE8capacityB8ue170006Ev, symObjAddr: 0x140CC, symBinAddr: 0x10001B67C, symSize: 0x38 }
  - { offsetInCU: 0x26D3A, offset: 0x31DF8, size: 0x8, addend: 0x0, symName: __ZNSt3__114__split_bufferIcRNS_9allocatorIcEEE17__destruct_at_endB8ue170006EPc, symObjAddr: 0x14104, symBinAddr: 0x10001B6B4, symSize: 0x2C }
  - { offsetInCU: 0x26D6E, offset: 0x31E2C, size: 0x8, addend: 0x0, symName: __ZNSt3__114__split_bufferIcRNS_9allocatorIcEEE17__destruct_at_endB8ue170006EPcNS_17integral_constantIbLb0EEE, symObjAddr: 0x14130, symBinAddr: 0x10001B6E0, symSize: 0x80 }
  - { offsetInCU: 0x26DAE, offset: 0x31E6C, size: 0x8, addend: 0x0, symName: __ZNKSt3__114__split_bufferIcRNS_9allocatorIcEEE9__end_capB8ue170006Ev, symObjAddr: 0x141B0, symBinAddr: 0x10001B760, symSize: 0x28 }
  - { offsetInCU: 0x26DD4, offset: 0x31E92, size: 0x8, addend: 0x0, symName: __ZNKSt3__117__compressed_pairIPcRNS_9allocatorIcEEE5firstB8ue170006Ev, symObjAddr: 0x141D8, symBinAddr: 0x10001B788, symSize: 0x24 }
  - { offsetInCU: 0x26DFA, offset: 0x31EB8, size: 0x8, addend: 0x0, symName: __ZNSt3__16vectorIP9FactorASTNS_9allocatorIS2_EEE9__end_capB8ue170006Ev, symObjAddr: 0x141FC, symBinAddr: 0x10001B7AC, symSize: 0x28 }
  - { offsetInCU: 0x26E20, offset: 0x31EDE, size: 0x8, addend: 0x0, symName: __ZNSt3__16vectorIP9FactorASTNS_9allocatorIS2_EEE22__construct_one_at_endB8ue170006IJRKS2_EEEvDpOT_, symObjAddr: 0x14224, symBinAddr: 0x10001B7D4, symSize: 0x90 }
  - { offsetInCU: 0x26E6F, offset: 0x31F2D, size: 0x8, addend: 0x0, symName: __ZNSt3__16vectorIP9FactorASTNS_9allocatorIS2_EEE21__push_back_slow_pathIRKS2_EEvOT_, symObjAddr: 0x142B4, symBinAddr: 0x10001B864, symSize: 0xD8 }
  - { offsetInCU: 0x26ECD, offset: 0x31F8B, size: 0x8, addend: 0x0, symName: __ZNSt3__117__compressed_pairIPP9FactorASTNS_9allocatorIS2_EEE5firstB8ue170006Ev, symObjAddr: 0x1438C, symBinAddr: 0x10001B93C, symSize: 0x24 }
  - { offsetInCU: 0x26EF3, offset: 0x31FB1, size: 0x8, addend: 0x0, symName: __ZNSt3__122__compressed_pair_elemIPP9FactorASTLi0ELb0EE5__getB8ue170006Ev, symObjAddr: 0x143B0, symBinAddr: 0x10001B960, symSize: 0x14 }
  - { offsetInCU: 0x26F32, offset: 0x31FF0, size: 0x8, addend: 0x0, symName: __ZNSt3__16vectorIP9FactorASTNS_9allocatorIS2_EEE21_ConstructTransactionC1B8ue170006ERS5_m, symObjAddr: 0x143C4, symBinAddr: 0x10001B974, symSize: 0x3C }
  - { offsetInCU: 0x26F7A, offset: 0x32038, size: 0x8, addend: 0x0, symName: __ZNSt3__116allocator_traitsINS_9allocatorIP9FactorASTEEE9constructB8ue170006IS3_JRKS3_EvEEvRS4_PT_DpOT0_, symObjAddr: 0x14400, symBinAddr: 0x10001B9B0, symSize: 0x34 }
  - { offsetInCU: 0x26FD1, offset: 0x3208F, size: 0x8, addend: 0x0, symName: __ZNSt3__16vectorIP9FactorASTNS_9allocatorIS2_EEE21_ConstructTransactionD1B8ue170006Ev, symObjAddr: 0x14434, symBinAddr: 0x10001B9E4, symSize: 0x2C }
  - { offsetInCU: 0x26FFB, offset: 0x320B9, size: 0x8, addend: 0x0, symName: __ZNSt3__16vectorIP9FactorASTNS_9allocatorIS2_EEE21_ConstructTransactionC2B8ue170006ERS5_m, symObjAddr: 0x14460, symBinAddr: 0x10001BA10, symSize: 0x44 }
  - { offsetInCU: 0x27043, offset: 0x32101, size: 0x8, addend: 0x0, symName: __ZNSt3__19allocatorIP9FactorASTE9constructB8ue170006IS2_JRKS2_EEEvPT_DpOT0_, symObjAddr: 0x144A4, symBinAddr: 0x10001BA54, symSize: 0x28 }
  - { offsetInCU: 0x27099, offset: 0x32157, size: 0x8, addend: 0x0, symName: __ZNSt3__16vectorIP9FactorASTNS_9allocatorIS2_EEE21_ConstructTransactionD2B8ue170006Ev, symObjAddr: 0x144CC, symBinAddr: 0x10001BA7C, symSize: 0x20 }
  - { offsetInCU: 0x270C3, offset: 0x32181, size: 0x8, addend: 0x0, symName: __ZNKSt3__16vectorIP9FactorASTNS_9allocatorIS2_EEE11__recommendB8ue170006Em, symObjAddr: 0x144EC, symBinAddr: 0x10001BA9C, symSize: 0xB4 }
  - { offsetInCU: 0x27118, offset: 0x321D6, size: 0x8, addend: 0x0, symName: __ZNSt3__114__split_bufferIP9FactorASTRNS_9allocatorIS2_EEEC1EmmS5_, symObjAddr: 0x145A0, symBinAddr: 0x10001BB50, symSize: 0x44 }
  - { offsetInCU: 0x2716E, offset: 0x3222C, size: 0x8, addend: 0x0, symName: __ZNSt3__114__split_bufferIP9FactorASTRNS_9allocatorIS2_EEED1Ev, symObjAddr: 0x146F4, symBinAddr: 0x10001BCA4, symSize: 0x2C }
  - { offsetInCU: 0x2719A, offset: 0x32258, size: 0x8, addend: 0x0, symName: __ZNKSt3__16vectorIP9FactorASTNS_9allocatorIS2_EEE8max_sizeEv, symObjAddr: 0x14720, symBinAddr: 0x10001BCD0, symSize: 0x60 }
  - { offsetInCU: 0x271C2, offset: 0x32280, size: 0x8, addend: 0x0, symName: __ZNKSt3__16vectorIP9FactorASTNS_9allocatorIS2_EEE20__throw_length_errorB8ue170006Ev, symObjAddr: 0x14780, symBinAddr: 0x10001BD30, symSize: 0x1C }
  - { offsetInCU: 0x271F2, offset: 0x322B0, size: 0x8, addend: 0x0, symName: __ZNSt3__116allocator_traitsINS_9allocatorIP9FactorASTEEE8max_sizeB8ue170006IS4_vEEmRKS4_, symObjAddr: 0x1479C, symBinAddr: 0x10001BD4C, symSize: 0x24 }
  - { offsetInCU: 0x27220, offset: 0x322DE, size: 0x8, addend: 0x0, symName: __ZNKSt3__16vectorIP9FactorASTNS_9allocatorIS2_EEE7__allocB8ue170006Ev, symObjAddr: 0x147C0, symBinAddr: 0x10001BD70, symSize: 0x28 }
  - { offsetInCU: 0x27246, offset: 0x32304, size: 0x8, addend: 0x0, symName: __ZNKSt3__19allocatorIP9FactorASTE8max_sizeB8ue170006Ev, symObjAddr: 0x147E8, symBinAddr: 0x10001BD98, symSize: 0x14 }
  - { offsetInCU: 0x2726C, offset: 0x3232A, size: 0x8, addend: 0x0, symName: __ZNKSt3__117__compressed_pairIPP9FactorASTNS_9allocatorIS2_EEE6secondB8ue170006Ev, symObjAddr: 0x147FC, symBinAddr: 0x10001BDAC, symSize: 0x24 }
  - { offsetInCU: 0x27292, offset: 0x32350, size: 0x8, addend: 0x0, symName: __ZNKSt3__122__compressed_pair_elemINS_9allocatorIP9FactorASTEELi1ELb1EE5__getB8ue170006Ev, symObjAddr: 0x14820, symBinAddr: 0x10001BDD0, symSize: 0x14 }
  - { offsetInCU: 0x272B8, offset: 0x32376, size: 0x8, addend: 0x0, symName: __ZNSt3__114__split_bufferIP9FactorASTRNS_9allocatorIS2_EEEC2EmmS5_, symObjAddr: 0x14834, symBinAddr: 0x10001BDE4, symSize: 0xD4 }
  - { offsetInCU: 0x2732C, offset: 0x323EA, size: 0x8, addend: 0x0, symName: __ZNSt3__117__compressed_pairIPP9FactorASTRNS_9allocatorIS2_EEEC1B8ue170006IDnS6_EEOT_OT0_, symObjAddr: 0x14908, symBinAddr: 0x10001BEB8, symSize: 0x3C }
  - { offsetInCU: 0x27384, offset: 0x32442, size: 0x8, addend: 0x0, symName: __ZNSt3__114__split_bufferIP9FactorASTRNS_9allocatorIS2_EEE7__allocB8ue170006Ev, symObjAddr: 0x14984, symBinAddr: 0x10001BF34, symSize: 0x28 }
  - { offsetInCU: 0x273AA, offset: 0x32468, size: 0x8, addend: 0x0, symName: __ZNSt3__114__split_bufferIP9FactorASTRNS_9allocatorIS2_EEE9__end_capB8ue170006Ev, symObjAddr: 0x149AC, symBinAddr: 0x10001BF5C, symSize: 0x28 }
  - { offsetInCU: 0x273D0, offset: 0x3248E, size: 0x8, addend: 0x0, symName: __ZNSt3__117__compressed_pairIPP9FactorASTRNS_9allocatorIS2_EEEC2B8ue170006IDnS6_EEOT_OT0_, symObjAddr: 0x149D4, symBinAddr: 0x10001BF84, symSize: 0x48 }
  - { offsetInCU: 0x27428, offset: 0x324E6, size: 0x8, addend: 0x0, symName: __ZNSt3__122__compressed_pair_elemIRNS_9allocatorIP9FactorASTEELi1ELb0EEC2B8ue170006IS5_vEEOT_, symObjAddr: 0x14A1C, symBinAddr: 0x10001BFCC, symSize: 0x20 }
  - { offsetInCU: 0x2746A, offset: 0x32528, size: 0x8, addend: 0x0, symName: __ZNSt3__19allocatorIP9FactorASTE8allocateB8ue170006Em, symObjAddr: 0x14A3C, symBinAddr: 0x10001BFEC, symSize: 0x58 }
  - { offsetInCU: 0x2749E, offset: 0x3255C, size: 0x8, addend: 0x0, symName: __ZNSt3__117__compressed_pairIPP9FactorASTRNS_9allocatorIS2_EEE6secondB8ue170006Ev, symObjAddr: 0x14A94, symBinAddr: 0x10001C044, symSize: 0x28 }
  - { offsetInCU: 0x274C4, offset: 0x32582, size: 0x8, addend: 0x0, symName: __ZNSt3__122__compressed_pair_elemIRNS_9allocatorIP9FactorASTEELi1ELb0EE5__getB8ue170006Ev, symObjAddr: 0x14ABC, symBinAddr: 0x10001C06C, symSize: 0x18 }
  - { offsetInCU: 0x274EA, offset: 0x325A8, size: 0x8, addend: 0x0, symName: __ZNSt3__117__compressed_pairIPP9FactorASTRNS_9allocatorIS2_EEE5firstB8ue170006Ev, symObjAddr: 0x14AD4, symBinAddr: 0x10001C084, symSize: 0x24 }
  - { offsetInCU: 0x27510, offset: 0x325CE, size: 0x8, addend: 0x0, symName: __ZNSt3__116reverse_iteratorIPP9FactorASTEC1B8ue170006ES3_, symObjAddr: 0x14B70, symBinAddr: 0x10001C120, symSize: 0x34 }
  - { offsetInCU: 0x27548, offset: 0x32606, size: 0x8, addend: 0x0, symName: __ZNKSt3__116reverse_iteratorIPP9FactorASTE4baseB8ue170006Ev, symObjAddr: 0x14BA4, symBinAddr: 0x10001C154, symSize: 0x18 }
  - { offsetInCU: 0x2756E, offset: 0x3262C, size: 0x8, addend: 0x0, symName: __ZNKSt3__16vectorIP9FactorASTNS_9allocatorIS2_EEE14__annotate_newB8ue170006Em, symObjAddr: 0x14BF8, symBinAddr: 0x10001C1A8, symSize: 0xAC }
  - { offsetInCU: 0x275BC, offset: 0x3267A, size: 0x8, addend: 0x0, symName: __ZNKSt3__111__move_loopINS_17_ClassicAlgPolicyEEclB8ue170006INS_16reverse_iteratorIPP9FactorASTEES8_S8_EENS_4pairIT_T1_EESA_T0_SB_, symObjAddr: 0x14F94, symBinAddr: 0x10001C544, symSize: 0xA0 }
  - { offsetInCU: 0x2762C, offset: 0x326EA, size: 0x8, addend: 0x0, symName: __ZNSt3__18_IterOpsINS_17_ClassicAlgPolicyEE11__iter_moveB8ue170006IRNS_16reverse_iteratorIPP9FactorASTEEEENS_9enable_ifIXsr12is_referenceIDTdeclsr3stdE7declvalIRT_EEEEE5valueEDTclsr3stdE4movedeclsr3stdE7declvalISC_EEEEE4typeEOSB_, symObjAddr: 0x151C8, symBinAddr: 0x10001C778, symSize: 0x28 }
  - { offsetInCU: 0x27658, offset: 0x32716, size: 0x8, addend: 0x0, symName: __ZNKSt3__116reverse_iteratorIPP9FactorASTEdeB8ue170006Ev, symObjAddr: 0x151F0, symBinAddr: 0x10001C7A0, symSize: 0x28 }
  - { offsetInCU: 0x2768D, offset: 0x3274B, size: 0x8, addend: 0x0, symName: __ZNSt3__116reverse_iteratorIPP9FactorASTEppB8ue170006Ev, symObjAddr: 0x15218, symBinAddr: 0x10001C7C8, symSize: 0x20 }
  - { offsetInCU: 0x276B3, offset: 0x32771, size: 0x8, addend: 0x0, symName: __ZNSt3__18_IterOpsINS_17_ClassicAlgPolicyEE25__validate_iter_referenceB8ue170006IRNS_16reverse_iteratorIPP9FactorASTEEEEvv, symObjAddr: 0x15238, symBinAddr: 0x10001C7E8, symSize: 0x4 }
  - { offsetInCU: 0x276D1, offset: 0x3278F, size: 0x8, addend: 0x0, symName: __ZNSt3__118__unwrap_iter_implINS_16reverse_iteratorIPP9FactorASTEELb0EE8__unwrapB8ue170006ES5_, symObjAddr: 0x1523C, symBinAddr: 0x10001C7EC, symSize: 0x24 }
  - { offsetInCU: 0x276F9, offset: 0x327B7, size: 0x8, addend: 0x0, symName: __ZNSt3__14pairINS_16reverse_iteratorIPP9FactorASTEES5_EC1B8ue170006IS5_S5_LPv0EEEOT_OT0_, symObjAddr: 0x15260, symBinAddr: 0x10001C810, symSize: 0x3C }
  - { offsetInCU: 0x27758, offset: 0x32816, size: 0x8, addend: 0x0, symName: __ZNSt3__14pairINS_16reverse_iteratorIPP9FactorASTEES5_EC2B8ue170006IS5_S5_LPv0EEEOT_OT0_, symObjAddr: 0x1529C, symBinAddr: 0x10001C84C, symSize: 0x34 }
  - { offsetInCU: 0x277B7, offset: 0x32875, size: 0x8, addend: 0x0, symName: __ZNSt3__118__unwrap_iter_implINS_16reverse_iteratorIPP9FactorASTEELb0EE8__rewrapB8ue170006ES5_S5_, symObjAddr: 0x152D0, symBinAddr: 0x10001C880, symSize: 0x2C }
  - { offsetInCU: 0x277E4, offset: 0x328A2, size: 0x8, addend: 0x0, symName: __ZNSt3__116reverse_iteratorIPP9FactorASTEC2B8ue170006ES3_, symObjAddr: 0x152FC, symBinAddr: 0x10001C8AC, symSize: 0x28 }
  - { offsetInCU: 0x2781C, offset: 0x328DA, size: 0x8, addend: 0x0, symName: __ZNSt3__114__split_bufferIP9FactorASTRNS_9allocatorIS2_EEED2Ev, symObjAddr: 0x15324, symBinAddr: 0x10001C8D4, symSize: 0x8C }
  - { offsetInCU: 0x27848, offset: 0x32906, size: 0x8, addend: 0x0, symName: __ZNSt3__114__split_bufferIP9FactorASTRNS_9allocatorIS2_EEE5clearB8ue170006Ev, symObjAddr: 0x153B0, symBinAddr: 0x10001C960, symSize: 0x28 }
  - { offsetInCU: 0x2786E, offset: 0x3292C, size: 0x8, addend: 0x0, symName: __ZNKSt3__114__split_bufferIP9FactorASTRNS_9allocatorIS2_EEE8capacityB8ue170006Ev, symObjAddr: 0x153D8, symBinAddr: 0x10001C988, symSize: 0x40 }
  - { offsetInCU: 0x27894, offset: 0x32952, size: 0x8, addend: 0x0, symName: __ZNSt3__114__split_bufferIP9FactorASTRNS_9allocatorIS2_EEE17__destruct_at_endB8ue170006EPS2_, symObjAddr: 0x15418, symBinAddr: 0x10001C9C8, symSize: 0x2C }
  - { offsetInCU: 0x278C8, offset: 0x32986, size: 0x8, addend: 0x0, symName: __ZNSt3__114__split_bufferIP9FactorASTRNS_9allocatorIS2_EEE17__destruct_at_endB8ue170006EPS2_NS_17integral_constantIbLb0EEE, symObjAddr: 0x15444, symBinAddr: 0x10001C9F4, symSize: 0x80 }
  - { offsetInCU: 0x27908, offset: 0x329C6, size: 0x8, addend: 0x0, symName: __ZNKSt3__114__split_bufferIP9FactorASTRNS_9allocatorIS2_EEE9__end_capB8ue170006Ev, symObjAddr: 0x154C4, symBinAddr: 0x10001CA74, symSize: 0x28 }
  - { offsetInCU: 0x2792E, offset: 0x329EC, size: 0x8, addend: 0x0, symName: __ZNKSt3__117__compressed_pairIPP9FactorASTRNS_9allocatorIS2_EEE5firstB8ue170006Ev, symObjAddr: 0x154EC, symBinAddr: 0x10001CA9C, symSize: 0x24 }
  - { offsetInCU: 0x27954, offset: 0x32A12, size: 0x8, addend: 0x0, symName: __ZNSt3__112basic_stringIcNS_11char_traitsIcEENS_9allocatorIcEEEC2B8ue170006ILi0EEEPKc, symObjAddr: 0x15510, symBinAddr: 0x10001CAC0, symSize: 0x58 }
  - { offsetInCU: 0x27993, offset: 0x32A51, size: 0x8, addend: 0x0, symName: __ZNKSt3__112basic_stringIcNS_11char_traitsIcEENS_9allocatorIcEEE4sizeB8ue170006Ev, symObjAddr: 0x15568, symBinAddr: 0x10001CB18, symSize: 0x54 }
  - { offsetInCU: 0x279B9, offset: 0x32A77, size: 0x8, addend: 0x0, symName: __ZNKSt3__112basic_stringIcNS_11char_traitsIcEENS_9allocatorIcEEE15__get_long_sizeB8ue170006Ev, symObjAddr: 0x155BC, symBinAddr: 0x10001CB6C, symSize: 0x28 }
  - { offsetInCU: 0x279DF, offset: 0x32A9D, size: 0x8, addend: 0x0, symName: __ZNKSt3__112basic_stringIcNS_11char_traitsIcEENS_9allocatorIcEEE16__get_short_sizeB8ue170006Ev, symObjAddr: 0x155E4, symBinAddr: 0x10001CB94, symSize: 0x34 }
  - { offsetInCU: 0x27A05, offset: 0x32AC3, size: 0x8, addend: 0x0, symName: __ZNSt3__111char_traitsIcE7compareB8ue170006EPKcS3_m, symObjAddr: 0x15840, symBinAddr: 0x10001CDF0, symSize: 0x34 }
  - { offsetInCU: 0xD097, offset: 0x3FF46, size: 0x8, addend: 0x0, symName: _main, symObjAddr: 0x0, symBinAddr: 0x10001CE24, symSize: 0x1D0 }
  - { offsetInCU: 0xD1CB, offset: 0x4007A, size: 0x8, addend: 0x0, symName: __ZNSt3__113basic_fstreamIcNS_11char_traitsIcEEEC1ERKNS_12basic_stringIcS2_NS_9allocatorIcEEEEj, symObjAddr: 0x2D0, symBinAddr: 0x10001CFF4, symSize: 0x180 }
  - { offsetInCU: 0xD215, offset: 0x400C4, size: 0x8, addend: 0x0, symName: __ZN8FooLexerC1ERNSt3__113basic_istreamIcNS0_11char_traitsIcEEEEi, symObjAddr: 0x450, symBinAddr: 0x10001D174, symSize: 0x3C }
  - { offsetInCU: 0xD25B, offset: 0x4010A, size: 0x8, addend: 0x0, symName: __ZN8FooLexerD1Ev, symObjAddr: 0x48C, symBinAddr: 0x10001D1B0, symSize: 0x2C }
  - { offsetInCU: 0xD28C, offset: 0x4013B, size: 0x8, addend: 0x0, symName: __ZNSt3__113basic_fstreamIcNS_11char_traitsIcEEED1Ev, symObjAddr: 0x4B8, symBinAddr: 0x10001D1DC, symSize: 0x40 }
  - { offsetInCU: 0xD2B8, offset: 0x40167, size: 0x8, addend: 0x0, symName: __ZN8FooLexerC2ERNSt3__113basic_istreamIcNS0_11char_traitsIcEEEEi, symObjAddr: 0x4F8, symBinAddr: 0x10001D21C, symSize: 0x68 }
  - { offsetInCU: 0xD2FE, offset: 0x401AD, size: 0x8, addend: 0x0, symName: __ZN8FooLexerD0Ev, symObjAddr: 0x560, symBinAddr: 0x10001D284, symSize: 0x30 }
  - { offsetInCU: 0xD32A, offset: 0x401D9, size: 0x8, addend: 0x0, symName: __ZN8FooLexerD2Ev, symObjAddr: 0x590, symBinAddr: 0x10001D2B4, symSize: 0x2C }
  - { offsetInCU: 0xD356, offset: 0x40205, size: 0x8, addend: 0x0, symName: __ZNSt3__113basic_fstreamIcNS_11char_traitsIcEEED2Ev, symObjAddr: 0x5BC, symBinAddr: 0x10001D2E0, symSize: 0x6C }
  - { offsetInCU: 0xD38F, offset: 0x4023E, size: 0x8, addend: 0x0, symName: __ZThn16_NSt3__113basic_fstreamIcNS_11char_traitsIcEEED1Ev, symObjAddr: 0x628, symBinAddr: 0x10001D34C, symSize: 0x1C }
  - { offsetInCU: 0xD3A5, offset: 0x40254, size: 0x8, addend: 0x0, symName: __ZTv0_n24_NSt3__113basic_fstreamIcNS_11char_traitsIcEEED1Ev, symObjAddr: 0x644, symBinAddr: 0x10001D368, symSize: 0x28 }
  - { offsetInCU: 0xD3BB, offset: 0x4026A, size: 0x8, addend: 0x0, symName: __ZNSt3__113basic_fstreamIcNS_11char_traitsIcEEED0Ev, symObjAddr: 0x66C, symBinAddr: 0x10001D390, symSize: 0x30 }
  - { offsetInCU: 0xD3E7, offset: 0x40296, size: 0x8, addend: 0x0, symName: __ZThn16_NSt3__113basic_fstreamIcNS_11char_traitsIcEEED0Ev, symObjAddr: 0x69C, symBinAddr: 0x10001D3C0, symSize: 0x18 }
  - { offsetInCU: 0xD3FD, offset: 0x402AC, size: 0x8, addend: 0x0, symName: __ZTv0_n24_NSt3__113basic_fstreamIcNS_11char_traitsIcEEED0Ev, symObjAddr: 0x6B4, symBinAddr: 0x10001D3D8, symSize: 0x20 }
  - { offsetInCU: 0xD42C, offset: 0x402DB, size: 0x8, addend: 0x0, symName: __ZNSt3__114basic_iostreamIcNS_11char_traitsIcEEEC2B8ue170006EPNS_15basic_streambufIcS2_EE, symObjAddr: 0x125C, symBinAddr: 0x10001D3F8, symSize: 0xAC }
  - { offsetInCU: 0xD472, offset: 0x40321, size: 0x8, addend: 0x0, symName: __ZNSt3__113basic_filebufIcNS_11char_traitsIcEEE4openERKNS_12basic_stringIcS2_NS_9allocatorIcEEEEj, symObjAddr: 0x1308, symBinAddr: 0x10001D4A4, symSize: 0x44 }
  - { offsetInCU: 0xD4B6, offset: 0x40365, size: 0x8, addend: 0x0, symName: __ZNSt3__113basic_istreamIcNS_11char_traitsIcEEEC2B8ue170006EPNS_15basic_streambufIcS2_EE, symObjAddr: 0x1370, symBinAddr: 0x10001D4E8, symSize: 0x64 }
  - { offsetInCU: 0xD4FB, offset: 0x403AA, size: 0x8, addend: 0x0, symName: __ZNSt3__113basic_ostreamIcNS_11char_traitsIcEEEC2B8ue170006Ev, symObjAddr: 0x13D4, symBinAddr: 0x10001D54C, symSize: 0x34 }
  - { offsetInCU: 0xD532, offset: 0x403E1, size: 0x8, addend: 0x0, symName: __ZNKSt3__112basic_stringIcNS_11char_traitsIcEENS_9allocatorIcEEE5c_strB8ue170006Ev, symObjAddr: 0x144C, symBinAddr: 0x10001D580, symSize: 0x24 }
...
